

Microchip MPLAB XC8 Assembler V2.45 build 20230818022343 
                                                                                               Thu May 30 22:02:35 2024

Microchip MPLAB XC8 C Compiler v2.45 (Free license) build 20230818022343 Og9 
     1                           	processor	18F8722
     2                           	fnconf	rparam,??,?,0
     3                           	pagewidth 120
     4                           	opt	flic
     5                           	psect	cinit,global,reloc=2,class=CODE,delta=1
     6                           	psect	bssCOMRAM,global,class=COMRAM,space=1,delta=1,lowdata,noexec
     7                           	psect	bssBANK1,global,class=BANK1,space=1,delta=1,lowdata,noexec
     8                           	psect	bssBANK2,global,class=BANK2,space=1,delta=1,lowdata,noexec
     9                           	psect	cstackCOMRAM,global,class=COMRAM,space=1,delta=1,lowdata,noexec
    10                           	psect	text0,global,reloc=2,class=CODE,delta=1
    11                           	psect	text1,global,reloc=2,class=CODE,delta=1
    12                           	psect	text2,global,reloc=2,class=CODE,delta=1
    13                           	psect	text3,global,reloc=2,class=CODE,delta=1
    14                           	psect	text4,global,reloc=2,class=CODE,delta=1
    15                           	psect	text5,global,reloc=2,class=CODE,delta=1
    16                           	psect	text6,global,reloc=2,class=CODE,delta=1
    17                           	psect	text7,global,reloc=2,class=CODE,delta=1
    18                           	psect	text8,global,reloc=2,class=CODE,delta=1,inline
    19                           	psect	text9,global,reloc=2,class=CODE,delta=1
    20                           	psect	text10,global,reloc=2,class=CODE,delta=1,inline
    21                           	psect	text11,global,reloc=2,class=CODE,delta=1
    22                           	psect	text12,global,reloc=2,class=CODE,delta=1,group=1
    23                           	psect	text13,global,reloc=2,class=CODE,delta=1,inline
    24                           	psect	text14,global,reloc=2,class=CODE,delta=1
    25                           	psect	text15,global,reloc=2,class=CODE,delta=1
    26                           	psect	text16,global,reloc=2,class=CODE,delta=1
    27                           	psect	text17,global,reloc=2,class=CODE,delta=1
    28                           	psect	text18,global,reloc=2,class=CODE,delta=1
    29                           	psect	text19,global,reloc=2,class=CODE,delta=1,inline
    30                           	psect	text20,global,reloc=2,class=CODE,delta=1
    31                           	psect	text21,global,reloc=2,class=CODE,delta=1
    32                           	psect	intcodelo,global,reloc=2,class=CODE,delta=1
    33                           	psect	intcode,global,reloc=2,class=CODE,delta=1
    34                           	psect	intcode_body,global,reloc=2,class=CODE,delta=1
    35                           	psect	text24,global,reloc=2,class=CODE,delta=1
    36                           	psect	text25,global,reloc=2,class=CODE,delta=1
    37                           	psect	text26,global,reloc=2,class=CODE,delta=1
    38                           	psect	text27,global,reloc=2,class=CODE,delta=1
    39                           	psect	text28,global,reloc=2,class=CODE,delta=1
    40                           	psect	text29,global,reloc=2,class=CODE,delta=1
    41                           	psect	text30,global,reloc=2,class=CODE,delta=1
    42                           	psect	text31,global,reloc=2,class=CODE,delta=1,inline
    43                           	psect	text32,global,reloc=2,class=CODE,delta=1,inline
    44                           	psect	text33,global,reloc=2,class=CODE,delta=1
    45                           	psect	text34,global,reloc=2,class=CODE,delta=1
    46                           	psect	text35,global,reloc=2,class=CODE,delta=1
    47                           	psect	text36,global,reloc=2,class=CODE,delta=1
    48                           	psect	text37,global,reloc=2,class=CODE,delta=1
    49                           	psect	text38,global,reloc=2,class=CODE,delta=1
    50                           	psect	text39,global,reloc=2,class=CODE,delta=1
    51                           	psect	smallconst,global,reloc=2,class=SMALLCONST,delta=1,noexec
    52                           	psect	intsave_regs,global,class=BIGRAM,space=1,delta=1,noexec
    53                           	psect	rparam,global,class=COMRAM,space=1,delta=1,noexec
    54                           	psect	temp,global,ovrld,common,class=COMRAM,space=1,delta=1
    55                           	psect	idloc,global,abs,ovrld,class=IDLOC,space=5,delta=1,noexec
    56                           	psect	config,global,abs,ovrld,class=CONFIG,space=4,delta=1,noexec
    57   000000                     
    58                           ; Version 2.20
    59                           ; Generated 12/02/2020 GMT
    60                           ; 
    61                           ; Copyright © 2020, Microchip Technology Inc. and its subsidiaries ("Microchip")
    62                           ; All rights reserved.
    63                           ; 
    64                           ; This software is developed by Microchip Technology Inc. and its subsidiaries ("Microch
      +                          ip").
    65                           ; 
    66                           ; Redistribution and use in source and binary forms, with or without modification, are
    67                           ; permitted provided that the following conditions are met:
    68                           ; 
    69                           ;     1. Redistributions of source code must retain the above copyright notice, this lis
      +                          t of
    70                           ;        conditions and the following disclaimer.
    71                           ; 
    72                           ;     2. Redistributions in binary form must reproduce the above copyright notice, this 
      +                          list
    73                           ;        of conditions and the following disclaimer in the documentation and/or other
    74                           ;        materials provided with the distribution.
    75                           ; 
    76                           ;     3. Microchip's name may not be used to endorse or promote products derived from th
      +                          is
    77                           ;        software without specific prior written permission.
    78                           ; 
    79                           ; THIS SOFTWARE IS PROVIDED BY MICROCHIP "AS IS" AND ANY EXPRESS OR IMPLIED WARRANTIES,
    80                           ; INCLUDING, BUT NOT LIMITED TO, THE IMPLIED WARRANTIES OF MERCHANTABILITY AND FITNESS F
      +                          OR
    81                           ; PURPOSE ARE DISCLAIMED.  IN NO EVENT SHALL MICROCHIP BE LIABLE FOR ANY DIRECT, INDIREC
      +                          T,
    82                           ; INCIDENTAL, SPECIAL, EXEMPLARY, OR CONSEQUENTIAL DAMAGES (INCLUDING BUT NOT LIMITED TO
    83                           ; PROCUREMENT OF SUBSTITUTE GOODS OR SERVICES; LOSS OF USE, DATA OR PROFITS; OR BUSINESS
    84                           ; INTERRUPTION) HOWSOEVER CAUSED AND ON ANY THEORY OF LIABILITY, WHETHER IN CONTRACT, ST
      +                          RICT
    85                           ; LIABILITY, OR TORT (INCLUDING NEGLIGENCE OR OTHERWISE) ARISING IN ANY WAY OUT OF THE U
      +                          SE OF
    86                           ; THIS SOFTWARE, EVEN IF ADVISED OF THE POSSIBILITY OF SUCH DAMAGE.
    87                           ; 
    88                           ; 
    89                           ; Code-generator required, PIC18F8722 Definitions
    90                           ; 
    91                           ; SFR Addresses
    92   000000                     _ADRESL	set	4035
    93   000000                     _TMR0L	set	4054
    94   000000                     _TMR0H	set	4055
    95   000000                     _TXREG1	set	4013
    96   000000                     _TXSTA1bits	set	4012
    97   000000                     _RCREG1	set	4014
    98   000000                     _ADCON0bits	set	4034
    99   000000                     _LATDbits	set	3980
   100   000000                     _LATCbits	set	3979
   101   000000                     _LATBbits	set	3978
   102   000000                     _LATAbits	set	3977
   103   000000                     _T0CON	set	4053
   104   000000                     _RCSTA1bits	set	4011
   105   000000                     _PORTB	set	3969
   106   000000                     _BAUDCON1bits	set	3966
   107   000000                     _PORTA	set	3968
   108   000000                     _PORTBbits	set	3969
   109   000000                     _T0CONbits	set	4053
   110   000000                     _INTCONbits	set	4082
   111   000000                     _PORTH	set	3975
   112   000000                     _PORTD	set	3971
   113   000000                     _PORTC	set	3970
   114   000000                     _TRISA	set	3986
   115   000000                     _PIR1bits	set	3998
   116   000000                     _RCSTAbits	set	4011
   117   000000                     _ADCON2	set	4032
   118   000000                     _ADCON1	set	4033
   119   000000                     _ADCON0	set	4034
   120   000000                     _SPBRG1	set	4015
   121   000000                     _ADRESH	set	4036
   122   000000                     _TRISH	set	3993
   123   000000                     _TRISD	set	3989
   124   000000                     _TRISC	set	3988
   125   000000                     _TRISB	set	3987
   126   000000                     _PIE1bits	set	3997
   127   000000                     _LATA	set	3977
   128   000000                     _LATH	set	3984
   129   000000                     _LATD	set	3980
   130   000000                     _LATC	set	3979
   131   000000                     _LATB	set	3978
   132                           
   133                           ; #config settings
   134                           
   135                           	psect	cinit
   136   001834                     __pcinit:
   137                           	callstack 0
   138   001834                     start_initialization:
   139                           	callstack 0
   140   001834                     __initialization:
   141                           	callstack 0
   142                           
   143                           ; Clear objects allocated to BANK2 (255 bytes)
   144   001834  EE02  F000         	lfsr	0,__pbssBANK2
   145   001838  EE10 F0FF          	lfsr	1,255
   146   00183C                     clear_0:
   147   00183C  6AEE               	clrf	postinc0,c
   148   00183E  50E5               	movf	postdec1,w,c
   149   001840  50E1               	movf	fsr1l,w,c
   150   001842  E1FC               	bnz	clear_0
   151   001844  50E2               	movf	fsr1h,w,c
   152   001846  E1FA               	bnz	clear_0
   153                           
   154                           ; Clear objects allocated to BANK1 (255 bytes)
   155   001848  EE01  F000         	lfsr	0,__pbssBANK1
   156   00184C  EE10 F0FF          	lfsr	1,255
   157   001850                     clear_1:
   158   001850  6AEE               	clrf	postinc0,c
   159   001852  50E5               	movf	postdec1,w,c
   160   001854  50E1               	movf	fsr1l,w,c
   161   001856  E1FC               	bnz	clear_1
   162   001858  50E2               	movf	fsr1h,w,c
   163   00185A  E1FA               	bnz	clear_1
   164                           
   165                           ; Clear objects allocated to COMRAM (35 bytes)
   166   00185C  EE00  F001         	lfsr	0,__pbssCOMRAM
   167   001860  0E23               	movlw	35
   168   001862                     clear_2:
   169   001862  6AEE               	clrf	postinc0,c
   170   001864  06E8               	decf	wreg,f,c
   171   001866  E1FD               	bnz	clear_2
   172   001868                     end_of_initialization:
   173                           	callstack 0
   174   001868                     __end_of__initialization:
   175                           	callstack 0
   176   001868  9045               	bcf	int$flags,0,c	;clear compiler interrupt flag (level 1)
   177   00186A  9245               	bcf	int$flags,1,c	;clear compiler interrupt flag (level 2)
   178   00186C  0100               	movlb	0
   179   00186E  EF95  F00C         	goto	_main	;jump to C main() function
   180                           
   181                           	psect	bssCOMRAM
   182   000001                     __pbssCOMRAM:
   183                           	callstack 0
   184   000001                     _portb_send:
   185                           	callstack 0
   186   000001                     	ds	4
   187   000005                     _portb_enable:
   188                           	callstack 0
   189   000005                     	ds	4
   190   000009                     _portb_prev:
   191                           	callstack 0
   192   000009                     	ds	4
   193   00000D                     _message_name:
   194                           	callstack 0
   195   00000D                     	ds	3
   196   000010                     _tail:
   197                           	callstack 0
   198   000010                     	ds	2
   199   000012                     _head:
   200                           	callstack 0
   201   000012                     	ds	2
   202   000014                     _parsed_number:
   203                           	callstack 0
   204   000014                     	ds	2
   205   000016                     _speed:
   206                           	callstack 0
   207   000016                     	ds	2
   208   000018                     _adc:
   209                           	callstack 0
   210   000018                     	ds	2
   211   00001A                     _dist:
   212                           	callstack 0
   213   00001A                     	ds	2
   214   00001C                     _parsed_digit_count:
   215                           	callstack 0
   216   00001C                     	ds	1
   217   00001D                     _digit_count_to_be_parsed:
   218                           	callstack 0
   219   00001D                     	ds	1
   220   00001E                     _message_pos:
   221                           	callstack 0
   222   00001E                     	ds	1
   223   00001F                     _message_type:
   224                           	callstack 0
   225   00001F                     	ds	1
   226   000020                     _parse_state:
   227                           	callstack 0
   228   000020                     	ds	1
   229   000021                     _is_manual:
   230                           	callstack 0
   231   000021                     	ds	1
   232   000022                     _counter:
   233                           	callstack 0
   234   000022                     	ds	1
   235   000023                     _altitude_period:
   236                           	callstack 0
   237   000023                     	ds	1
   238                           
   239                           	psect	bssBANK1
   240   000100                     __pbssBANK1:
   241                           	callstack 0
   242   000100                     _inbuf:
   243                           	callstack 0
   244   000100                     	ds	255
   245                           
   246                           	psect	bssBANK2
   247   000200                     __pbssBANK2:
   248                           	callstack 0
   249   000200                     _outbuf:
   250                           	callstack 0
   251   000200                     	ds	255
   252                           
   253                           	psect	cstackCOMRAM
   254   000024                     __pcstackCOMRAM:
   255                           	callstack 0
   256   000024                     ??_portb_isr:
   257   000024                     ??_adc_isr:
   258   000024                     ?_adc_to_alt:
   259                           	callstack 0
   260   000024                     buf_push@buf:
   261                           	callstack 0
   262   000024                     to_hex@nibble:
   263                           	callstack 0
   264   000024                     adc_to_alt@value:
   265                           	callstack 0
   266                           
   267                           ; 2 bytes @ 0x0
   268   000024                     	ds	1
   269   000025                     ??_buf_push:
   270   000025                     portb_isr@current:
   271                           	callstack 0
   272                           
   273                           ; 4 bytes @ 0x1
   274   000025                     	ds	1
   275   000026                     buf_isempty@buf:
   276                           	callstack 0
   277                           
   278                           ; 1 bytes @ 0x2
   279   000026                     	ds	1
   280   000027                     ??_buf_pop:
   281   000027                     buf_push@v:
   282                           	callstack 0
   283                           
   284                           ; 1 bytes @ 0x3
   285   000027                     	ds	1
   286   000028                     send_button_press@nibble0:
   287                           	callstack 0
   288   000028                     send_distance@distance:
   289                           	callstack 0
   290   000028                     send_altitude@adc_value:
   291                           	callstack 0
   292                           
   293                           ; 2 bytes @ 0x4
   294   000028                     	ds	1
   295   000029                     buf_pop@v:
   296                           	callstack 0
   297   000029                     send_button_press@nibble1:
   298                           	callstack 0
   299                           
   300                           ; 1 bytes @ 0x5
   301   000029                     	ds	1
   302   00002A                     buf_pop@buf:
   303                           	callstack 0
   304   00002A                     send_distance@nibble0:
   305                           	callstack 0
   306   00002A                     send_altitude@nibble0:
   307                           	callstack 0
   308   00002A                     send_button_press@button:
   309                           	callstack 0
   310                           
   311                           ; 1 bytes @ 0x6
   312   00002A                     	ds	1
   313   00002B                     send_distance@nibble1:
   314                           	callstack 0
   315   00002B                     send_altitude@nibble1:
   316                           	callstack 0
   317   00002B                     send_button_press@hex:
   318                           	callstack 0
   319                           
   320                           ; 1 bytes @ 0x7
   321   00002B                     	ds	1
   322   00002C                     send_distance@nibble2:
   323                           	callstack 0
   324   00002C                     send_altitude@nibble2:
   325                           	callstack 0
   326                           
   327                           ; 1 bytes @ 0x8
   328   00002C                     	ds	1
   329   00002D                     send_distance@nibble3:
   330                           	callstack 0
   331   00002D                     send_altitude@nibble3:
   332                           	callstack 0
   333                           
   334                           ; 1 bytes @ 0x9
   335   00002D                     	ds	1
   336   00002E                     send_distance@hex:
   337                           	callstack 0
   338   00002E                     send_altitude@alt:
   339                           	callstack 0
   340                           
   341                           ; 2 bytes @ 0xA
   342   00002E                     	ds	2
   343   000030                     send_altitude@hex:
   344                           	callstack 0
   345                           
   346                           ; 1 bytes @ 0xC
   347   000030                     	ds	1
   348   000031                     ??_highPriorityISR:
   349                           
   350                           ; 1 bytes @ 0xD
   351   000031                     	ds	4
   352   000035                     ??_lowPriorityISR:
   353                           
   354                           ; 1 bytes @ 0x11
   355   000035                     	ds	1
   356   000036                     ??_get_led:
   357   000036                     ?___lwdiv:
   358                           	callstack 0
   359   000036                     get_manual@activation:
   360                           	callstack 0
   361   000036                     to_nibble@character:
   362                           	callstack 0
   363   000036                     get_go@distance:
   364                           	callstack 0
   365   000036                     get_speed@spd:
   366                           	callstack 0
   367   000036                     ___lwdiv@dividend:
   368                           	callstack 0
   369                           
   370                           ; 2 bytes @ 0x12
   371   000036                     	ds	2
   372   000038                     get_led@led:
   373                           	callstack 0
   374   000038                     ___lwdiv@divisor:
   375                           	callstack 0
   376                           
   377                           ; 2 bytes @ 0x14
   378   000038                     	ds	2
   379   00003A                     ___lwdiv@quotient:
   380                           	callstack 0
   381                           
   382                           ; 2 bytes @ 0x16
   383   00003A                     	ds	2
   384   00003C                     ___lwdiv@counter:
   385                           	callstack 0
   386                           
   387                           ; 1 bytes @ 0x18
   388   00003C                     	ds	1
   389   00003D                     get_altitude@period:
   390                           	callstack 0
   391                           
   392                           ; 2 bytes @ 0x19
   393   00003D                     	ds	2
   394   00003F                     ??_parse:
   395                           
   396                           ; 1 bytes @ 0x1B
   397   00003F                     	ds	2
   398   000041                     parse@is_end:
   399                           	callstack 0
   400                           
   401                           ; 1 bytes @ 0x1D
   402   000041                     	ds	1
   403   000042                     _parse$1054:
   404                           	callstack 0
   405                           
   406                           ; 1 bytes @ 0x1E
   407   000042                     	ds	1
   408   000043                     parse@is_digit:
   409                           	callstack 0
   410                           
   411                           ; 1 bytes @ 0x1F
   412   000043                     	ds	1
   413   000044                     parse@value:
   414                           	callstack 0
   415                           
   416                           ; 1 bytes @ 0x20
   417   000044                     	ds	1
   418   000045                     
   419                           ; 1 bytes @ 0x21
   420 ;;
   421 ;;Main: autosize = 0, tempsize = 0, incstack = 0, save=0
   422 ;;
   423 ;; *************** function _main *****************
   424 ;; Defined at:
   425 ;;		line 763 in file "main.c"
   426 ;; Parameters:    Size  Location     Type
   427 ;;		None
   428 ;; Auto vars:     Size  Location     Type
   429 ;;		None
   430 ;; Return value:  Size  Location     Type
   431 ;;                  1    wreg      void 
   432 ;; Registers used:
   433 ;;		wreg, fsr1l, fsr1h, fsr2l, fsr2h, status,2, status,0, cstack
   434 ;; Tracked objects:
   435 ;;		On entry : 0/0
   436 ;;		On exit  : 0/0
   437 ;;		Unchanged: 0/0
   438 ;; Data sizes:     COMRAM   BANK0   BANK1   BANK2   BANK3   BANK4   BANK5   BANK6   BANK7   BANK8   BANK9  BANK10  BANK1
      +1  BANK12  BANK13  BANK14  BANK15
   439 ;;      Params:         0       0       0       0       0       0       0       0       0       0       0       0       
      +0       0       0       0       0
   440 ;;      Locals:         0       0       0       0       0       0       0       0       0       0       0       0       
      +0       0       0       0       0
   441 ;;      Temps:          0       0       0       0       0       0       0       0       0       0       0       0       
      +0       0       0       0       0
   442 ;;      Totals:         0       0       0       0       0       0       0       0       0       0       0       0       
      +0       0       0       0       0
   443 ;;Total ram usage:        0 bytes
   444 ;; Hardware stack levels required when called: 8
   445 ;; This function calls:
   446 ;;		_adc_task
   447 ;;		_init_adc
   448 ;;		_init_interrupts
   449 ;;		_init_ports
   450 ;;		_init_serial
   451 ;;		_init_timer
   452 ;;		_init_vars
   453 ;;		_parse
   454 ;;		_start_system
   455 ;; This function is called by:
   456 ;;		Startup code after reset
   457 ;; This function uses a non-reentrant model
   458 ;;
   459                           
   460                           	psect	text0
   461   00192A                     __ptext0:
   462                           	callstack 0
   463   00192A                     _main:
   464                           	callstack 23
   465                           
   466                           ;incstack = 0
   467   00192A  ECB2  F00A         	call	_init_vars	;wreg free
   468   00192E  EC39  F00C         	call	_init_ports	;wreg free
   469   001932  EC03  F00D         	call	_init_serial	;wreg free
   470   001936  EC29  F00D         	call	_init_interrupts	;wreg free
   471   00193A  ECF8  F00C         	call	_init_adc	;wreg free
   472   00193E  EC38  F00D         	call	_init_timer	;wreg free
   473   001942  EC4F  F00D         	call	_start_system	;wreg free
   474   001946                     l2191:
   475   001946  EC01  F008         	call	_parse	;wreg free
   476   00194A  EC44  F00D         	call	_adc_task	;wreg free
   477   00194E  D7FB               	goto	l2191
   478   001950                     __end_of_main:
   479                           	callstack 0
   480                           
   481 ;; *************** function _start_system *****************
   482 ;; Defined at:
   483 ;;		line 370 in file "main.c"
   484 ;; Parameters:    Size  Location     Type
   485 ;;		None
   486 ;; Auto vars:     Size  Location     Type
   487 ;;		None
   488 ;; Return value:  Size  Location     Type
   489 ;;                  1    wreg      void 
   490 ;; Registers used:
   491 ;;		None
   492 ;; Tracked objects:
   493 ;;		On entry : 0/0
   494 ;;		On exit  : 0/0
   495 ;;		Unchanged: 0/0
   496 ;; Data sizes:     COMRAM   BANK0   BANK1   BANK2   BANK3   BANK4   BANK5   BANK6   BANK7   BANK8   BANK9  BANK10  BANK1
      +1  BANK12  BANK13  BANK14  BANK15
   497 ;;      Params:         0       0       0       0       0       0       0       0       0       0       0       0       
      +0       0       0       0       0
   498 ;;      Locals:         0       0       0       0       0       0       0       0       0       0       0       0       
      +0       0       0       0       0
   499 ;;      Temps:          0       0       0       0       0       0       0       0       0       0       0       0       
      +0       0       0       0       0
   500 ;;      Totals:         0       0       0       0       0       0       0       0       0       0       0       0       
      +0       0       0       0       0
   501 ;;Total ram usage:        0 bytes
   502 ;; Hardware stack levels used: 1
   503 ;; Hardware stack levels required when called: 5
   504 ;; This function calls:
   505 ;;		Nothing
   506 ;; This function is called by:
   507 ;;		_main
   508 ;; This function uses a non-reentrant model
   509 ;;
   510                           
   511                           	psect	text1
   512   001A9E                     __ptext1:
   513                           	callstack 0
   514   001A9E                     _start_system:
   515                           	callstack 25
   516                           
   517                           ;main.c: 372: 
   518                           
   519                           ;incstack = 0
   520   001A9E  8EF2               	bsf	242,7,c	;volatile
   521   001AA0  0012               	return		;funcret
   522   001AA2                     __end_of_start_system:
   523                           	callstack 0
   524                           
   525 ;; *************** function _parse *****************
   526 ;; Defined at:
   527 ;;		line 618 in file "main.c"
   528 ;; Parameters:    Size  Location     Type
   529 ;;		None
   530 ;; Auto vars:     Size  Location     Type
   531 ;;  is_digit        1   31[COMRAM] _Bool 
   532 ;;  is_end          1   29[COMRAM] _Bool 
   533 ;;  value           1   32[COMRAM] unsigned char 
   534 ;; Return value:  Size  Location     Type
   535 ;;                  1    wreg      void 
   536 ;; Registers used:
   537 ;;		wreg, fsr1l, fsr1h, fsr2l, fsr2h, status,2, status,0, cstack
   538 ;; Tracked objects:
   539 ;;		On entry : 0/0
   540 ;;		On exit  : 0/0
   541 ;;		Unchanged: 0/0
   542 ;; Data sizes:     COMRAM   BANK0   BANK1   BANK2   BANK3   BANK4   BANK5   BANK6   BANK7   BANK8   BANK9  BANK10  BANK1
      +1  BANK12  BANK13  BANK14  BANK15
   543 ;;      Params:         0       0       0       0       0       0       0       0       0       0       0       0       
      +0       0       0       0       0
   544 ;;      Locals:         4       0       0       0       0       0       0       0       0       0       0       0       
      +0       0       0       0       0
   545 ;;      Temps:          2       0       0       0       0       0       0       0       0       0       0       0       
      +0       0       0       0       0
   546 ;;      Totals:         6       0       0       0       0       0       0       0       0       0       0       0       
      +0       0       0       0       0
   547 ;;Total ram usage:        6 bytes
   548 ;; Hardware stack levels used: 1
   549 ;; Hardware stack levels required when called: 7
   550 ;; This function calls:
   551 ;;		_buf_isempty
   552 ;;		_buf_pop
   553 ;;		_disable_interrupts
   554 ;;		_enable_interrupts
   555 ;;		_get_altitude
   556 ;;		_get_end
   557 ;;		_get_go
   558 ;;		_get_led
   559 ;;		_get_manual
   560 ;;		_get_speed
   561 ;;		_to_nibble
   562 ;; This function is called by:
   563 ;;		_main
   564 ;; This function uses a non-reentrant model
   565 ;;
   566                           
   567                           	psect	text2
   568   001002                     __ptext2:
   569                           	callstack 0
   570   001002                     _parse:
   571                           	callstack 23
   572                           
   573                           ;main.c: 621:         }
   574                           
   575                           ;incstack = 0
   576   001002  EC51  F00D         	call	_disable_interrupts	;wreg free
   577                           
   578                           ;main.c: 623: 
   579   001006  D11B               	goto	l2149
   580   001008                     l2019:
   581                           
   582                           ;main.c: 624: 
   583   001008  0E00               	movlw	0
   584   00100A  EC2D  F00B         	call	_buf_pop
   585   00100E  6E44               	movwf	parse@value^0,c
   586                           
   587                           ;main.c: 628: 
   588   001010  EC53  F00D         	call	_enable_interrupts	;wreg free
   589                           
   590                           ;main.c: 631: 
   591   001014  D102               	goto	l2145
   592   001016                     l2023:
   593                           
   594                           ;main.c: 635:     if (altitude_period != PERIOD_0) {
   595   001016  0E24               	movlw	36
   596   001018  1844               	xorwf	parse@value^0,w,c
   597   00101A  A4D8               	btfss	status,2,c
   598   00101C  D7F2               	goto	__ptext2
   599                           
   600                           ;main.c: 636:         ADCON0bits.GODONE = 1;
   601   00101E  0E01               	movlw	1
   602   001020  D068               	goto	L4
   603   001022                     l2027:
   604                           
   605                           ;main.c: 643: 
   606   001022  501E               	movf	_message_pos^0,w,c
   607   001024  0F0D               	addlw	low _message_name
   608   001026  6ED9               	movwf	fsr2l,c
   609   001028  6ADA               	clrf	fsr2h,c
   610   00102A  C044  FFDF         	movff	parse@value,indf2
   611                           
   612                           ;main.c: 644:     init_vars();
   613   00102E  2A1E               	incf	_message_pos^0,f,c
   614                           
   615                           ;main.c: 646:     init_serial();
   616   001030  0E03               	movlw	3
   617   001032  181E               	xorwf	_message_pos^0,w,c
   618   001034  A4D8               	btfss	status,2,c
   619   001036  D7E5               	goto	__ptext2
   620                           
   621                           ;main.c: 647:     init_interrupts();
   622   001038  0E47               	movlw	71
   623   00103A  180D               	xorwf	_message_name^0,w,c
   624   00103C  A4D8               	btfss	status,2,c
   625   00103E  D00C               	goto	l2041
   626   001040  0E4F               	movlw	79
   627   001042  180E               	xorwf	(_message_name+1)^0,w,c
   628   001044  A4D8               	btfss	status,2,c
   629   001046  D008               	goto	l2041
   630   001048  0E4F               	movlw	79
   631   00104A  180F               	xorwf	(_message_name+2)^0,w,c
   632   00104C  A4D8               	btfss	status,2,c
   633   00104E  D004               	goto	l2041
   634                           
   635                           ;main.c: 648:     init_adc();
   636   001050  0E00               	movlw	0
   637   001052  6E1F               	movwf	_message_type^0,c
   638                           
   639                           ;main.c: 649:     init_timer();
   640   001054  0E04               	movlw	4
   641   001056  D01E               	goto	L2
   642   001058                     l2041:
   643   001058  0E45               	movlw	69
   644   00105A  180D               	xorwf	_message_name^0,w,c
   645   00105C  A4D8               	btfss	status,2,c
   646   00105E  D00C               	goto	l2049
   647   001060  0E4E               	movlw	78
   648   001062  180E               	xorwf	(_message_name+1)^0,w,c
   649   001064  A4D8               	btfss	status,2,c
   650   001066  D008               	goto	l2049
   651   001068  0E44               	movlw	68
   652   00106A  180F               	xorwf	(_message_name+2)^0,w,c
   653   00106C  A4D8               	btfss	status,2,c
   654   00106E  D004               	goto	l2049
   655                           
   656                           ;main.c: 651: 
   657   001070  0E01               	movlw	1
   658   001072  6E1F               	movwf	_message_type^0,c
   659                           
   660                           ;main.c: 652:     start_system();
   661   001074  0E00               	movlw	0
   662   001076  D00E               	goto	L2
   663   001078                     l2049:
   664   001078  0E53               	movlw	83
   665   00107A  180D               	xorwf	_message_name^0,w,c
   666   00107C  A4D8               	btfss	status,2,c
   667   00107E  D00C               	goto	l2057
   668   001080  0E50               	movlw	80
   669   001082  180E               	xorwf	(_message_name+1)^0,w,c
   670   001084  A4D8               	btfss	status,2,c
   671   001086  D008               	goto	l2057
   672   001088  0E44               	movlw	68
   673   00108A  180F               	xorwf	(_message_name+2)^0,w,c
   674   00108C  A4D8               	btfss	status,2,c
   675   00108E  D004               	goto	l2057
   676                           
   677                           ;main.c: 654: 
   678   001090  0E02               	movlw	2
   679   001092  D7DF               	goto	L5
   680   001094                     L2:
   681   001094  6E1D               	movwf	_digit_count_to_be_parsed^0,c
   682                           
   683                           ;main.c: 656:         parse();
   684   001096  D02F               	goto	l2083
   685   001098                     l2057:
   686   001098  0E41               	movlw	65
   687   00109A  180D               	xorwf	_message_name^0,w,c
   688   00109C  A4D8               	btfss	status,2,c
   689   00109E  D00A               	goto	l2065
   690   0010A0  0E4C               	movlw	76
   691   0010A2  180E               	xorwf	(_message_name+1)^0,w,c
   692   0010A4  A4D8               	btfss	status,2,c
   693   0010A6  D006               	goto	l2065
   694   0010A8  0E54               	movlw	84
   695   0010AA  180F               	xorwf	(_message_name+2)^0,w,c
   696   0010AC  A4D8               	btfss	status,2,c
   697   0010AE  D002               	goto	l2065
   698                           
   699                           ;main.c: 657:         adc_task();
   700   0010B0  0E03               	movlw	3
   701   0010B2  D7CF               	goto	L5
   702   0010B4                     l2065:
   703   0010B4  0E4D               	movlw	77
   704   0010B6  180D               	xorwf	_message_name^0,w,c
   705   0010B8  A4D8               	btfss	status,2,c
   706   0010BA  D00A               	goto	l2073
   707   0010BC  0E41               	movlw	65
   708   0010BE  180E               	xorwf	(_message_name+1)^0,w,c
   709   0010C0  A4D8               	btfss	status,2,c
   710   0010C2  D006               	goto	l2073
   711   0010C4  0E4E               	movlw	78
   712   0010C6  180F               	xorwf	(_message_name+2)^0,w,c
   713   0010C8  A4D8               	btfss	status,2,c
   714   0010CA  D002               	goto	l2073
   715                           
   716                           ;main.c: 660: }
   717   0010CC  0E04               	movlw	4
   718   0010CE  D00D               	goto	L6
   719   0010D0                     l2073:
   720   0010D0  0E4C               	movlw	76
   721   0010D2  180D               	xorwf	_message_name^0,w,c
   722   0010D4  A4D8               	btfss	status,2,c
   723   0010D6  D00C               	goto	l2081
   724   0010D8  0E45               	movlw	69
   725   0010DA  180E               	xorwf	(_message_name+1)^0,w,c
   726   0010DC  A4D8               	btfss	status,2,c
   727   0010DE  D008               	goto	l2081
   728   0010E0  0E44               	movlw	68
   729   0010E2  180F               	xorwf	(_message_name+2)^0,w,c
   730   0010E4  A4D8               	btfss	status,2,c
   731   0010E6  D004               	goto	l2081
   732   0010E8  0E05               	movlw	5
   733   0010EA                     L6:
   734   0010EA  6E1F               	movwf	_message_type^0,c
   735   0010EC  0E02               	movlw	2
   736   0010EE  D7D2               	goto	L2
   737   0010F0                     l2081:
   738   0010F0  0E00               	movlw	0
   739   0010F2                     L4:
   740   0010F2  6E20               	movwf	_parse_state^0,c
   741   0010F4  D786               	goto	__ptext2
   742   0010F6                     l2083:
   743   0010F6  0E02               	movlw	2
   744   0010F8  6E20               	movwf	_parse_state^0,c
   745   0010FA  0E00               	movlw	0
   746   0010FC  6E1E               	movwf	_message_pos^0,c
   747   0010FE  0E00               	movlw	0
   748   001100  6E1C               	movwf	_parsed_digit_count^0,c
   749   001102  D77F               	goto	__ptext2
   750   001104                     l2085:
   751   001104  0E01               	movlw	1
   752   001106  6E42               	movwf	_parse$1054^0,c
   753   001108  0E2F               	movlw	47
   754   00110A  6444               	cpfsgt	parse@value^0,c
   755   00110C  D003               	goto	u1450
   756   00110E  0E39               	movlw	57
   757   001110  6444               	cpfsgt	parse@value^0,c
   758   001112  D00E               	goto	l316
   759   001114                     u1450:
   760   001114  0E40               	movlw	64
   761   001116  6444               	cpfsgt	parse@value^0,c
   762   001118  D003               	goto	u1470
   763   00111A  0E46               	movlw	70
   764   00111C  6444               	cpfsgt	parse@value^0,c
   765   00111E  D008               	goto	l316
   766   001120                     u1470:
   767   001120  0E60               	movlw	96
   768   001122  6444               	cpfsgt	parse@value^0,c
   769   001124  D003               	goto	u1490
   770   001126  0E66               	movlw	102
   771   001128  6444               	cpfsgt	parse@value^0,c
   772   00112A  D002               	goto	l316
   773   00112C                     u1490:
   774   00112C  0E00               	movlw	0
   775   00112E  6E42               	movwf	_parse$1054^0,c
   776   001130                     l316:
   777   001130  5042               	movf	_parse$1054^0,w,c
   778   001132  B4D8               	btfsc	status,2,c
   779   001134  D002               	goto	u1500
   780   001136  0E01               	movlw	1
   781   001138  D001               	goto	u1510
   782   00113A                     u1500:
   783   00113A  0E00               	movlw	0
   784   00113C                     u1510:
   785   00113C  6E43               	movwf	parse@is_digit^0,c
   786   00113E  0E23               	movlw	35
   787   001140  1844               	xorwf	parse@value^0,w,c
   788   001142  A4D8               	btfss	status,2,c
   789   001144  D002               	goto	u1520
   790   001146  0E01               	movlw	1
   791   001148  D001               	goto	u1530
   792   00114A                     u1520:
   793   00114A  0E00               	movlw	0
   794   00114C                     u1530:
   795   00114C  6E41               	movwf	parse@is_end^0,c
   796   00114E  5043               	movf	parse@is_digit^0,w,c
   797   001150  A4D8               	btfss	status,2,c
   798   001152  D003               	goto	l2109
   799   001154  5041               	movf	parse@is_end^0,w,c
   800   001156  B4D8               	btfsc	status,2,c
   801   001158  D7CB               	goto	l2081
   802   00115A                     l2109:
   803   00115A  5043               	movf	parse@is_digit^0,w,c
   804   00115C  B4D8               	btfsc	status,2,c
   805   00115E  D015               	goto	l2121
   806   001160  501D               	movf	_digit_count_to_be_parsed^0,w,c
   807   001162  181C               	xorwf	_parsed_digit_count^0,w,c
   808   001164  B4D8               	btfsc	status,2,c
   809   001166  D7C4               	goto	l2081
   810   001168  3A14               	swapf	_parsed_number^0,f,c
   811   00116A  3A15               	swapf	(_parsed_number+1)^0,f,c
   812   00116C  0EF0               	movlw	240
   813   00116E  1615               	andwf	(_parsed_number+1)^0,f,c
   814   001170  5014               	movf	_parsed_number^0,w,c
   815   001172  0B0F               	andlw	15
   816   001174  1215               	iorwf	(_parsed_number+1)^0,f,c
   817   001176  0EF0               	movlw	240
   818   001178  1614               	andwf	_parsed_number^0,f,c
   819   00117A  5044               	movf	parse@value^0,w,c
   820   00117C  EC77  F00C         	call	_to_nibble
   821   001180  6E3F               	movwf	??_parse^0,c
   822   001182  503F               	movf	??_parse^0,w,c
   823   001184  1214               	iorwf	_parsed_number^0,f,c
   824   001186  2A1C               	incf	_parsed_digit_count^0,f,c
   825   001188  D73C               	goto	__ptext2
   826   00118A                     l2121:
   827   00118A  501D               	movf	_digit_count_to_be_parsed^0,w,c
   828   00118C  181C               	xorwf	_parsed_digit_count^0,w,c
   829   00118E  B4D8               	btfsc	status,2,c
   830   001190  D021               	goto	l2139
   831   001192  D03A               	goto	l2141
   832   001194                     l2125:
   833   001194  C014  F036         	movff	_parsed_number,get_go@distance
   834   001198  C015  F037         	movff	_parsed_number+1,get_go@distance+1
   835   00119C  EC31  F00D         	call	_get_go	;wreg free
   836   0011A0  D033               	goto	l2141
   837   0011A2                     l2127:
   838   0011A2  EC21  F00D         	call	_get_end	;wreg free
   839   0011A6  D030               	goto	l2141
   840   0011A8                     l2129:
   841   0011A8  C014  F036         	movff	_parsed_number,get_speed@spd
   842   0011AC  C015  F037         	movff	_parsed_number+1,get_speed@spd+1
   843   0011B0  EC3F  F00D         	call	_get_speed	;wreg free
   844   0011B4  D029               	goto	l2141
   845   0011B6                     l2131:
   846   0011B6  C014  F03D         	movff	_parsed_number,get_altitude@period
   847   0011BA  C015  F03E         	movff	_parsed_number+1,get_altitude@period+1
   848   0011BE  ECE9  F00C         	call	_get_altitude	;wreg free
   849   0011C2  D022               	goto	l2141
   850   0011C4                     l2133:
   851   0011C4  5014               	movf	_parsed_number^0,w,c
   852   0011C6  ECDA  F00C         	call	_get_manual
   853   0011CA  D01E               	goto	l2141
   854   0011CC                     l2135:
   855   0011CC  5014               	movf	_parsed_number^0,w,c
   856   0011CE  EC67  F00B         	call	_get_led
   857   0011D2  D01A               	goto	l2141
   858   0011D4                     l2139:
   859   0011D4  501F               	movf	_message_type^0,w,c
   860   0011D6  6E3F               	movwf	??_parse^0,c
   861   0011D8  6A40               	clrf	(??_parse+1)^0,c
   862                           
   863                           ; Switch on 2 bytes has been partitioned into a top level switch of size 1, and 1 sub-sw
      +                          itches
   864                           ; Switch size 1, requested type "simple"
   865                           ; Number of cases is 1, Range of values is 0 to 0
   866                           ; switch strategies available:
   867                           ; Name         Instructions Cycles
   868                           ; simple_byte            4     3 (average)
   869                           ;	Chosen strategy is simple_byte
   870   0011DA  5040               	movf	(??_parse+1)^0,w,c
   871   0011DC  0A00               	xorlw	0	; case 0
   872   0011DE  A4D8               	btfss	status,2,c
   873   0011E0  D013               	goto	l2141
   874                           
   875                           ; Switch size 1, requested type "simple"
   876                           ; Number of cases is 6, Range of values is 0 to 5
   877                           ; switch strategies available:
   878                           ; Name         Instructions Cycles
   879                           ; simple_byte           19    10 (average)
   880                           ;	Chosen strategy is simple_byte
   881   0011E2  503F               	movf	??_parse^0,w,c
   882   0011E4  0A00               	xorlw	0	; case 0
   883   0011E6  B4D8               	btfsc	status,2,c
   884   0011E8  D7D5               	goto	l2125
   885   0011EA  0A01               	xorlw	1	; case 1
   886   0011EC  B4D8               	btfsc	status,2,c
   887   0011EE  D7D9               	goto	l2127
   888   0011F0  0A03               	xorlw	3	; case 2
   889   0011F2  B4D8               	btfsc	status,2,c
   890   0011F4  D7D9               	goto	l2129
   891   0011F6  0A01               	xorlw	1	; case 3
   892   0011F8  B4D8               	btfsc	status,2,c
   893   0011FA  D7DD               	goto	l2131
   894   0011FC  0A07               	xorlw	7	; case 4
   895   0011FE  B4D8               	btfsc	status,2,c
   896   001200  D7E1               	goto	l2133
   897   001202  0A01               	xorlw	1	; case 5
   898   001204  B4D8               	btfsc	status,2,c
   899   001206  D7E2               	goto	l2135
   900   001208                     l2141:
   901   001208  0E00               	movlw	0
   902   00120A  6E1C               	movwf	_parsed_digit_count^0,c
   903   00120C  0E00               	movlw	0
   904   00120E  6E20               	movwf	_parse_state^0,c
   905   001210  0E00               	movlw	0
   906   001212  6E15               	movwf	(_parsed_number+1)^0,c
   907   001214  0E00               	movlw	0
   908   001216  6E14               	movwf	_parsed_number^0,c
   909   001218  D6F4               	goto	__ptext2
   910   00121A                     l2145:
   911   00121A  5020               	movf	_parse_state^0,w,c
   912   00121C  6E3F               	movwf	??_parse^0,c
   913   00121E  6A40               	clrf	(??_parse+1)^0,c
   914                           
   915                           ; Switch on 2 bytes has been partitioned into a top level switch of size 1, and 1 sub-sw
      +                          itches
   916                           ; Switch size 1, requested type "simple"
   917                           ; Number of cases is 1, Range of values is 0 to 0
   918                           ; switch strategies available:
   919                           ; Name         Instructions Cycles
   920                           ; simple_byte            4     3 (average)
   921                           ;	Chosen strategy is simple_byte
   922   001220  5040               	movf	(??_parse+1)^0,w,c
   923   001222  0A00               	xorlw	0	; case 0
   924   001224  A4D8               	btfss	status,2,c
   925   001226  D6ED               	goto	__ptext2
   926                           
   927                           ; Switch size 1, requested type "simple"
   928                           ; Number of cases is 3, Range of values is 0 to 2
   929                           ; switch strategies available:
   930                           ; Name         Instructions Cycles
   931                           ; simple_byte           10     6 (average)
   932                           ;	Chosen strategy is simple_byte
   933   001228  503F               	movf	??_parse^0,w,c
   934   00122A  0A00               	xorlw	0	; case 0
   935   00122C  B4D8               	btfsc	status,2,c
   936   00122E  D6F3               	goto	l2023
   937   001230  0A01               	xorlw	1	; case 1
   938   001232  B4D8               	btfsc	status,2,c
   939   001234  D6F6               	goto	l2027
   940   001236  0A03               	xorlw	3	; case 2
   941   001238  B4D8               	btfsc	status,2,c
   942   00123A  D764               	goto	l2085
   943   00123C  D6E2               	goto	__ptext2
   944   00123E                     l2149:
   945                           
   946                           ;main.c: 623: 
   947   00123E  0E00               	movlw	0
   948   001240  ECA8  F00C         	call	_buf_isempty
   949   001244  0900               	iorlw	0
   950   001246  B4D8               	btfsc	status,2,c
   951   001248  D6DF               	goto	l2019
   952   00124A  EC53  F00D         	call	_enable_interrupts	;wreg free
   953   00124E  0012               	return		;funcret
   954   001250                     __end_of_parse:
   955                           	callstack 0
   956                           
   957 ;; *************** function _to_nibble *****************
   958 ;; Defined at:
   959 ;;		line 464 in file "main.c"
   960 ;; Parameters:    Size  Location     Type
   961 ;;  character       1    wreg     unsigned char 
   962 ;; Auto vars:     Size  Location     Type
   963 ;;  character       1   18[COMRAM] unsigned char 
   964 ;; Return value:  Size  Location     Type
   965 ;;                  1    wreg      unsigned char 
   966 ;; Registers used:
   967 ;;		wreg, status,2, status,0
   968 ;; Tracked objects:
   969 ;;		On entry : 0/0
   970 ;;		On exit  : 0/0
   971 ;;		Unchanged: 0/0
   972 ;; Data sizes:     COMRAM   BANK0   BANK1   BANK2   BANK3   BANK4   BANK5   BANK6   BANK7   BANK8   BANK9  BANK10  BANK1
      +1  BANK12  BANK13  BANK14  BANK15
   973 ;;      Params:         0       0       0       0       0       0       0       0       0       0       0       0       
      +0       0       0       0       0
   974 ;;      Locals:         1       0       0       0       0       0       0       0       0       0       0       0       
      +0       0       0       0       0
   975 ;;      Temps:          0       0       0       0       0       0       0       0       0       0       0       0       
      +0       0       0       0       0
   976 ;;      Totals:         1       0       0       0       0       0       0       0       0       0       0       0       
      +0       0       0       0       0
   977 ;;Total ram usage:        1 bytes
   978 ;; Hardware stack levels used: 1
   979 ;; Hardware stack levels required when called: 5
   980 ;; This function calls:
   981 ;;		Nothing
   982 ;; This function is called by:
   983 ;;		_parse
   984 ;; This function uses a non-reentrant model
   985 ;;
   986                           
   987                           	psect	text3
   988   0018EE                     __ptext3:
   989                           	callstack 0
   990   0018EE                     _to_nibble:
   991                           	callstack 24
   992                           
   993                           ;incstack = 0
   994                           ;to_nibble@character stored from wreg
   995   0018EE  6E36               	movwf	to_nibble@character^0,c
   996                           
   997                           ;main.c: 465:     uint8_t nibble0 = button & 0xF;
   998   0018F0  0E2F               	movlw	47
   999   0018F2  6436               	cpfsgt	to_nibble@character^0,c
  1000   0018F4  D006               	goto	l1927
  1001   0018F6  0E3A               	movlw	58
  1002   0018F8  6036               	cpfslt	to_nibble@character^0,c
  1003   0018FA  D003               	goto	l1927
  1004                           
  1005                           ;main.c: 466:     button >>= 4;
  1006   0018FC  5036               	movf	to_nibble@character^0,w,c
  1007   0018FE  0FD0               	addlw	208
  1008   001900  0012               	return	
  1009   001902                     l1927:
  1010   001902  0E60               	movlw	96
  1011   001904  6436               	cpfsgt	to_nibble@character^0,c
  1012   001906  D006               	goto	l1937
  1013   001908  0E67               	movlw	103
  1014   00190A  6036               	cpfslt	to_nibble@character^0,c
  1015   00190C  D003               	goto	l1937
  1016                           
  1017                           ;main.c: 468: 
  1018   00190E  5036               	movf	to_nibble@character^0,w,c
  1019   001910  0FA9               	addlw	169
  1020   001912  0012               	return	
  1021   001914                     l1937:
  1022   001914  0E40               	movlw	64
  1023   001916  6436               	cpfsgt	to_nibble@character^0,c
  1024   001918  D006               	goto	l1945
  1025   00191A  0E47               	movlw	71
  1026   00191C  6036               	cpfslt	to_nibble@character^0,c
  1027   00191E  D003               	goto	l1945
  1028                           
  1029                           ;main.c: 470: 
  1030   001920  5036               	movf	to_nibble@character^0,w,c
  1031   001922  0FC9               	addlw	201
  1032   001924  0012               	return	
  1033   001926                     l1945:
  1034                           
  1035                           ;main.c: 472: 
  1036   001926  0EFF               	movlw	255
  1037   001928  0012               	return		;funcret
  1038   00192A                     __end_of_to_nibble:
  1039                           	callstack 0
  1040                           
  1041 ;; *************** function _get_speed *****************
  1042 ;; Defined at:
  1043 ;;		line 389 in file "main.c"
  1044 ;; Parameters:    Size  Location     Type
  1045 ;;  spd             2   18[COMRAM] unsigned short 
  1046 ;; Auto vars:     Size  Location     Type
  1047 ;;		None
  1048 ;; Return value:  Size  Location     Type
  1049 ;;                  1    wreg      void 
  1050 ;; Registers used:
  1051 ;;		None
  1052 ;; Tracked objects:
  1053 ;;		On entry : 0/0
  1054 ;;		On exit  : 0/0
  1055 ;;		Unchanged: 0/0
  1056 ;; Data sizes:     COMRAM   BANK0   BANK1   BANK2   BANK3   BANK4   BANK5   BANK6   BANK7   BANK8   BANK9  BANK10  BANK1
      +1  BANK12  BANK13  BANK14  BANK15
  1057 ;;      Params:         2       0       0       0       0       0       0       0       0       0       0       0       
      +0       0       0       0       0
  1058 ;;      Locals:         0       0       0       0       0       0       0       0       0       0       0       0       
      +0       0       0       0       0
  1059 ;;      Temps:          0       0       0       0       0       0       0       0       0       0       0       0       
      +0       0       0       0       0
  1060 ;;      Totals:         2       0       0       0       0       0       0       0       0       0       0       0       
      +0       0       0       0       0
  1061 ;;Total ram usage:        2 bytes
  1062 ;; Hardware stack levels used: 1
  1063 ;; Hardware stack levels required when called: 5
  1064 ;; This function calls:
  1065 ;;		Nothing
  1066 ;; This function is called by:
  1067 ;;		_parse
  1068 ;; This function uses a non-reentrant model
  1069 ;;
  1070                           
  1071                           	psect	text4
  1072   001A7E                     __ptext4:
  1073                           	callstack 0
  1074   001A7E                     _get_speed:
  1075                           	callstack 24
  1076                           
  1077                           ;main.c: 390:     buf_push(hex, OUTBUF);
  1078                           
  1079                           ;incstack = 0
  1080   001A7E  C036  F016         	movff	get_speed@spd,_speed
  1081   001A82  C037  F017         	movff	get_speed@spd+1,_speed+1
  1082   001A86  0012               	return		;funcret
  1083   001A88                     __end_of_get_speed:
  1084                           	callstack 0
  1085                           
  1086 ;; *************** function _get_manual *****************
  1087 ;; Defined at:
  1088 ;;		line 406 in file "main.c"
  1089 ;; Parameters:    Size  Location     Type
  1090 ;;  activation      1    wreg     unsigned char 
  1091 ;; Auto vars:     Size  Location     Type
  1092 ;;  activation      1   18[COMRAM] unsigned char 
  1093 ;; Return value:  Size  Location     Type
  1094 ;;                  1    wreg      void 
  1095 ;; Registers used:
  1096 ;;		wreg, status,2
  1097 ;; Tracked objects:
  1098 ;;		On entry : 0/0
  1099 ;;		On exit  : 0/0
  1100 ;;		Unchanged: 0/0
  1101 ;; Data sizes:     COMRAM   BANK0   BANK1   BANK2   BANK3   BANK4   BANK5   BANK6   BANK7   BANK8   BANK9  BANK10  BANK1
      +1  BANK12  BANK13  BANK14  BANK15
  1102 ;;      Params:         0       0       0       0       0       0       0       0       0       0       0       0       
      +0       0       0       0       0
  1103 ;;      Locals:         1       0       0       0       0       0       0       0       0       0       0       0       
      +0       0       0       0       0
  1104 ;;      Temps:          0       0       0       0       0       0       0       0       0       0       0       0       
      +0       0       0       0       0
  1105 ;;      Totals:         1       0       0       0       0       0       0       0       0       0       0       0       
      +0       0       0       0       0
  1106 ;;Total ram usage:        1 bytes
  1107 ;; Hardware stack levels used: 1
  1108 ;; Hardware stack levels required when called: 5
  1109 ;; This function calls:
  1110 ;;		Nothing
  1111 ;; This function is called by:
  1112 ;;		_parse
  1113 ;; This function uses a non-reentrant model
  1114 ;;
  1115                           
  1116                           	psect	text5
  1117   0019B4                     __ptext5:
  1118                           	callstack 0
  1119   0019B4                     _get_manual:
  1120                           	callstack 24
  1121                           
  1122                           ;incstack = 0
  1123                           ;get_manual@activation stored from wreg
  1124   0019B4  6E36               	movwf	get_manual@activation^0,c
  1125                           
  1126                           ;main.c: 407:     } else if (value < 512) {
  1127   0019B6  5036               	movf	get_manual@activation^0,w,c
  1128   0019B8  B4D8               	btfsc	status,2,c
  1129   0019BA  D002               	goto	u1050
  1130   0019BC  0E01               	movlw	1
  1131   0019BE  D001               	goto	u1060
  1132   0019C0                     u1050:
  1133   0019C0  0E00               	movlw	0
  1134   0019C2                     u1060:
  1135   0019C2  6E21               	movwf	_is_manual^0,c
  1136                           
  1137                           ;main.c: 408:         return 10000;
  1138   0019C4  5021               	movf	_is_manual^0,w,c
  1139   0019C6  B4D8               	btfsc	status,2,c
  1140   0019C8  D002               	goto	l245
  1141                           
  1142                           ;main.c: 409:     } else if (value < 768) {
  1143   0019CA  86F2               	bsf	242,3,c	;volatile
  1144                           
  1145                           ;main.c: 410:         return 11000;
  1146   0019CC  0012               	return	
  1147   0019CE                     l245:
  1148                           
  1149                           ;main.c: 411:     } else {
  1150   0019CE  96F2               	bcf	242,3,c	;volatile
  1151   0019D0  0012               	return		;funcret
  1152   0019D2                     __end_of_get_manual:
  1153                           	callstack 0
  1154                           
  1155 ;; *************** function _get_led *****************
  1156 ;; Defined at:
  1157 ;;		line 416 in file "main.c"
  1158 ;; Parameters:    Size  Location     Type
  1159 ;;  led             1    wreg     unsigned char 
  1160 ;; Auto vars:     Size  Location     Type
  1161 ;;  led             1   20[COMRAM] unsigned char 
  1162 ;; Return value:  Size  Location     Type
  1163 ;;                  1    wreg      void 
  1164 ;; Registers used:
  1165 ;;		wreg, status,2, status,0
  1166 ;; Tracked objects:
  1167 ;;		On entry : 0/0
  1168 ;;		On exit  : 0/0
  1169 ;;		Unchanged: 0/0
  1170 ;; Data sizes:     COMRAM   BANK0   BANK1   BANK2   BANK3   BANK4   BANK5   BANK6   BANK7   BANK8   BANK9  BANK10  BANK1
      +1  BANK12  BANK13  BANK14  BANK15
  1171 ;;      Params:         0       0       0       0       0       0       0       0       0       0       0       0       
      +0       0       0       0       0
  1172 ;;      Locals:         1       0       0       0       0       0       0       0       0       0       0       0       
      +0       0       0       0       0
  1173 ;;      Temps:          2       0       0       0       0       0       0       0       0       0       0       0       
      +0       0       0       0       0
  1174 ;;      Totals:         3       0       0       0       0       0       0       0       0       0       0       0       
      +0       0       0       0       0
  1175 ;;Total ram usage:        3 bytes
  1176 ;; Hardware stack levels used: 1
  1177 ;; Hardware stack levels required when called: 5
  1178 ;; This function calls:
  1179 ;;		Nothing
  1180 ;; This function is called by:
  1181 ;;		_parse
  1182 ;; This function uses a non-reentrant model
  1183 ;;
  1184                           
  1185                           	psect	text6
  1186   0016CE                     __ptext6:
  1187                           	callstack 0
  1188   0016CE                     _get_led:
  1189                           	callstack 24
  1190                           
  1191                           ;incstack = 0
  1192                           ;get_led@led stored from wreg
  1193   0016CE  6E38               	movwf	get_led@led^0,c
  1194                           
  1195                           ;main.c: 417: 
  1196   0016D0  D01D               	goto	l1911
  1197   0016D2                     l251:
  1198                           
  1199                           ;main.c: 420:     uint16_t alt = adc_to_alt(adc_value);
  1200   0016D2  9089               	bcf	137,0,c	;volatile
  1201                           
  1202                           ;main.c: 421: 
  1203   0016D4  908A               	bcf	138,0,c	;volatile
  1204                           
  1205                           ;main.c: 422: 
  1206   0016D6  908B               	bcf	139,0,c	;volatile
  1207                           
  1208                           ;main.c: 423:     uint8_t nibble0 = alt & 0xF;
  1209   0016D8  908C               	bcf	140,0,c	;volatile
  1210                           
  1211                           ;main.c: 425:     uint8_t nibble1 = alt & 0xF;
  1212   0016DA  0E00               	movlw	0
  1213   0016DC  6E05               	movwf	_portb_enable^0,c
  1214                           
  1215                           ;main.c: 426:     alt >>= 4;
  1216   0016DE  0E00               	movlw	0
  1217   0016E0  6E06               	movwf	(_portb_enable+1)^0,c
  1218                           
  1219                           ;main.c: 427:     uint8_t nibble2 = alt & 0xF;
  1220   0016E2  0E00               	movlw	0
  1221   0016E4  6E07               	movwf	(_portb_enable+2)^0,c
  1222                           
  1223                           ;main.c: 428:     alt >>= 4;
  1224   0016E6  0E00               	movlw	0
  1225   0016E8  6E08               	movwf	(_portb_enable+3)^0,c
  1226                           
  1227                           ;main.c: 429:     uint8_t nibble3 = alt & 0xF;
  1228   0016EA  0012               	return	
  1229   0016EC                     l253:
  1230                           
  1231                           ;main.c: 432: 
  1232   0016EC  808C               	bsf	140,0,c	;volatile
  1233                           
  1234                           ;main.c: 433:     disable_interrupts();
  1235   0016EE  0E01               	movlw	1
  1236   0016F0  6E05               	movwf	_portb_enable^0,c
  1237                           
  1238                           ;main.c: 434: 
  1239   0016F2  0012               	return	
  1240   0016F4                     l254:
  1241                           
  1242                           ;main.c: 437:     buf_push('A', OUTBUF);
  1243   0016F4  808B               	bsf	139,0,c	;volatile
  1244                           
  1245                           ;main.c: 438:     buf_push('L', OUTBUF);
  1246   0016F6  0E01               	movlw	1
  1247   0016F8  6E06               	movwf	(_portb_enable+1)^0,c
  1248                           
  1249                           ;main.c: 439:     buf_push('T', OUTBUF);
  1250   0016FA  0012               	return	
  1251   0016FC                     l255:
  1252                           
  1253                           ;main.c: 442:     char hex;
  1254   0016FC  808A               	bsf	138,0,c	;volatile
  1255                           
  1256                           ;main.c: 443:     hex = to_hex(nibble3);
  1257   0016FE  0E01               	movlw	1
  1258   001700  6E07               	movwf	(_portb_enable+2)^0,c
  1259                           
  1260                           ;main.c: 444:     buf_push(hex, OUTBUF);
  1261   001702  0012               	return	
  1262   001704                     l256:
  1263                           
  1264                           ;main.c: 447:     hex = to_hex(nibble1);
  1265   001704  8089               	bsf	137,0,c	;volatile
  1266                           
  1267                           ;main.c: 448:     buf_push(hex, OUTBUF);
  1268   001706  0E01               	movlw	1
  1269   001708  6E08               	movwf	(_portb_enable+3)^0,c
  1270                           
  1271                           ;main.c: 449:     hex = to_hex(nibble0);
  1272   00170A  0012               	return	
  1273   00170C                     l1911:
  1274   00170C  5038               	movf	get_led@led^0,w,c
  1275   00170E  6E36               	movwf	??_get_led^0,c
  1276   001710  6A37               	clrf	(??_get_led+1)^0,c
  1277                           
  1278                           ; Switch on 2 bytes has been partitioned into a top level switch of size 1, and 1 sub-sw
      +                          itches
  1279                           ; Switch size 1, requested type "simple"
  1280                           ; Number of cases is 1, Range of values is 0 to 0
  1281                           ; switch strategies available:
  1282                           ; Name         Instructions Cycles
  1283                           ; simple_byte            4     3 (average)
  1284                           ;	Chosen strategy is simple_byte
  1285   001712  5037               	movf	(??_get_led+1)^0,w,c
  1286   001714  0A00               	xorlw	0	; case 0
  1287   001716  A4D8               	btfss	status,2,c
  1288   001718  0012               	return	
  1289                           
  1290                           ; Switch size 1, requested type "simple"
  1291                           ; Number of cases is 5, Range of values is 0 to 4
  1292                           ; switch strategies available:
  1293                           ; Name         Instructions Cycles
  1294                           ; simple_byte           16     9 (average)
  1295                           ;	Chosen strategy is simple_byte
  1296   00171A  5036               	movf	??_get_led^0,w,c
  1297   00171C  0A00               	xorlw	0	; case 0
  1298   00171E  B4D8               	btfsc	status,2,c
  1299   001720  D7D8               	goto	l251
  1300   001722  0A01               	xorlw	1	; case 1
  1301   001724  B4D8               	btfsc	status,2,c
  1302   001726  D7E2               	goto	l253
  1303   001728  0A03               	xorlw	3	; case 2
  1304   00172A  B4D8               	btfsc	status,2,c
  1305   00172C  D7E3               	goto	l254
  1306   00172E  0A01               	xorlw	1	; case 3
  1307   001730  B4D8               	btfsc	status,2,c
  1308   001732  D7E4               	goto	l255
  1309   001734  0A07               	xorlw	7	; case 4
  1310   001736  A4D8               	btfss	status,2,c
  1311   001738  0012               	return	
  1312   00173A  D7E4               	goto	l256
  1313   00173C                     __end_of_get_led:
  1314                           	callstack 0
  1315                           
  1316 ;; *************** function _get_go *****************
  1317 ;; Defined at:
  1318 ;;		line 376 in file "main.c"
  1319 ;; Parameters:    Size  Location     Type
  1320 ;;  distance        2   18[COMRAM] unsigned short 
  1321 ;; Auto vars:     Size  Location     Type
  1322 ;;		None
  1323 ;; Return value:  Size  Location     Type
  1324 ;;                  1    wreg      void 
  1325 ;; Registers used:
  1326 ;;		cstack
  1327 ;; Tracked objects:
  1328 ;;		On entry : 0/0
  1329 ;;		On exit  : 0/0
  1330 ;;		Unchanged: 0/0
  1331 ;; Data sizes:     COMRAM   BANK0   BANK1   BANK2   BANK3   BANK4   BANK5   BANK6   BANK7   BANK8   BANK9  BANK10  BANK1
      +1  BANK12  BANK13  BANK14  BANK15
  1332 ;;      Params:         2       0       0       0       0       0       0       0       0       0       0       0       
      +0       0       0       0       0
  1333 ;;      Locals:         0       0       0       0       0       0       0       0       0       0       0       0       
      +0       0       0       0       0
  1334 ;;      Temps:          0       0       0       0       0       0       0       0       0       0       0       0       
      +0       0       0       0       0
  1335 ;;      Totals:         2       0       0       0       0       0       0       0       0       0       0       0       
      +0       0       0       0       0
  1336 ;;Total ram usage:        2 bytes
  1337 ;; Hardware stack levels used: 1
  1338 ;; Hardware stack levels required when called: 6
  1339 ;; This function calls:
  1340 ;;		_enable_timer0
  1341 ;; This function is called by:
  1342 ;;		_parse
  1343 ;; This function uses a non-reentrant model
  1344 ;;
  1345                           
  1346                           	psect	text7
  1347   001A62                     __ptext7:
  1348                           	callstack 0
  1349   001A62                     _get_go:
  1350                           	callstack 23
  1351                           
  1352                           ;main.c: 377:     buf_push('D', OUTBUF);
  1353                           
  1354                           ;incstack = 0
  1355   001A62  C036  F01A         	movff	get_go@distance,_dist
  1356   001A66  C037  F01B         	movff	get_go@distance+1,_dist+1
  1357                           
  1358                           ;main.c: 378:     buf_push('S', OUTBUF);
  1359   001A6A  EC49  F00D         	call	_enable_timer0	;wreg free
  1360   001A6E  0012               	return		;funcret
  1361   001A70                     __end_of_get_go:
  1362                           	callstack 0
  1363                           
  1364 ;; *************** function _enable_timer0 *****************
  1365 ;; Defined at:
  1366 ;;		line 74 in file "main.c"
  1367 ;; Parameters:    Size  Location     Type
  1368 ;;		None
  1369 ;; Auto vars:     Size  Location     Type
  1370 ;;		None
  1371 ;; Return value:  Size  Location     Type
  1372 ;;                  1    wreg      void 
  1373 ;; Registers used:
  1374 ;;		None
  1375 ;; Tracked objects:
  1376 ;;		On entry : 0/0
  1377 ;;		On exit  : 0/0
  1378 ;;		Unchanged: 0/0
  1379 ;; Data sizes:     COMRAM   BANK0   BANK1   BANK2   BANK3   BANK4   BANK5   BANK6   BANK7   BANK8   BANK9  BANK10  BANK1
      +1  BANK12  BANK13  BANK14  BANK15
  1380 ;;      Params:         0       0       0       0       0       0       0       0       0       0       0       0       
      +0       0       0       0       0
  1381 ;;      Locals:         0       0       0       0       0       0       0       0       0       0       0       0       
      +0       0       0       0       0
  1382 ;;      Temps:          0       0       0       0       0       0       0       0       0       0       0       0       
      +0       0       0       0       0
  1383 ;;      Totals:         0       0       0       0       0       0       0       0       0       0       0       0       
      +0       0       0       0       0
  1384 ;;Total ram usage:        0 bytes
  1385 ;; Hardware stack levels used: 1
  1386 ;; Hardware stack levels required when called: 5
  1387 ;; This function calls:
  1388 ;;		Nothing
  1389 ;; This function is called by:
  1390 ;;		_get_go
  1391 ;; This function uses a non-reentrant model
  1392 ;;
  1393                           
  1394                           	psect	text8
  1395   001A92                     __ptext8:
  1396                           	callstack 0
  1397   001A92                     _enable_timer0:
  1398                           	callstack 23
  1399                           
  1400                           ;main.c: 75:     INTCONbits.TMR0IE = 1;;main.c: 75:     if (buf_isempty(OUTBUF)) {
  1401                           
  1402                           ;incstack = 0
  1403   001A92  8AF2               	bsf	242,5,c	;volatile
  1404                           
  1405                           ;main.c: 76:     T0CONbits.TMR0ON = 1;;main.c: 76:         while (!TXSTA1bits.TRMT);
  1406   001A94  8ED5               	bsf	213,7,c	;volatile
  1407   001A96  0012               	return		;funcret
  1408   001A98                     __end_of_enable_timer0:
  1409                           	callstack 0
  1410                           
  1411 ;; *************** function _get_end *****************
  1412 ;; Defined at:
  1413 ;;		line 382 in file "main.c"
  1414 ;; Parameters:    Size  Location     Type
  1415 ;;		None
  1416 ;; Auto vars:     Size  Location     Type
  1417 ;;		None
  1418 ;; Return value:  Size  Location     Type
  1419 ;;                  1    wreg      void 
  1420 ;; Registers used:
  1421 ;;		wreg, status,2, cstack
  1422 ;; Tracked objects:
  1423 ;;		On entry : 0/0
  1424 ;;		On exit  : 0/0
  1425 ;;		Unchanged: 0/0
  1426 ;; Data sizes:     COMRAM   BANK0   BANK1   BANK2   BANK3   BANK4   BANK5   BANK6   BANK7   BANK8   BANK9  BANK10  BANK1
      +1  BANK12  BANK13  BANK14  BANK15
  1427 ;;      Params:         0       0       0       0       0       0       0       0       0       0       0       0       
      +0       0       0       0       0
  1428 ;;      Locals:         0       0       0       0       0       0       0       0       0       0       0       0       
      +0       0       0       0       0
  1429 ;;      Temps:          0       0       0       0       0       0       0       0       0       0       0       0       
      +0       0       0       0       0
  1430 ;;      Totals:         0       0       0       0       0       0       0       0       0       0       0       0       
      +0       0       0       0       0
  1431 ;;Total ram usage:        0 bytes
  1432 ;; Hardware stack levels used: 1
  1433 ;; Hardware stack levels required when called: 6
  1434 ;; This function calls:
  1435 ;;		_disable_timer0
  1436 ;; This function is called by:
  1437 ;;		_parse
  1438 ;; This function uses a non-reentrant model
  1439 ;;
  1440                           
  1441                           	psect	text9
  1442   001A42                     __ptext9:
  1443                           	callstack 0
  1444   001A42                     _get_end:
  1445                           	callstack 23
  1446                           
  1447                           ;main.c: 383:     hex = to_hex(nibble3);
  1448                           
  1449                           ;incstack = 0
  1450   001A42  0E00               	movlw	0
  1451   001A44  6E1B               	movwf	(_dist+1)^0,c
  1452   001A46  0E00               	movlw	0
  1453   001A48  6E1A               	movwf	_dist^0,c
  1454                           
  1455                           ;main.c: 384:     buf_push(hex, OUTBUF);
  1456   001A4A  EC4C  F00D         	call	_disable_timer0	;wreg free
  1457   001A4E  00FF               	reset		;# 
  1458   001A50  0012               	return		;funcret
  1459   001A52                     __end_of_get_end:
  1460                           	callstack 0
  1461                           
  1462 ;; *************** function _disable_timer0 *****************
  1463 ;; Defined at:
  1464 ;;		line 81 in file "main.c"
  1465 ;; Parameters:    Size  Location     Type
  1466 ;;		None
  1467 ;; Auto vars:     Size  Location     Type
  1468 ;;		None
  1469 ;; Return value:  Size  Location     Type
  1470 ;;                  1    wreg      void 
  1471 ;; Registers used:
  1472 ;;		None
  1473 ;; Tracked objects:
  1474 ;;		On entry : 0/0
  1475 ;;		On exit  : 0/0
  1476 ;;		Unchanged: 0/0
  1477 ;; Data sizes:     COMRAM   BANK0   BANK1   BANK2   BANK3   BANK4   BANK5   BANK6   BANK7   BANK8   BANK9  BANK10  BANK1
      +1  BANK12  BANK13  BANK14  BANK15
  1478 ;;      Params:         0       0       0       0       0       0       0       0       0       0       0       0       
      +0       0       0       0       0
  1479 ;;      Locals:         0       0       0       0       0       0       0       0       0       0       0       0       
      +0       0       0       0       0
  1480 ;;      Temps:          0       0       0       0       0       0       0       0       0       0       0       0       
      +0       0       0       0       0
  1481 ;;      Totals:         0       0       0       0       0       0       0       0       0       0       0       0       
      +0       0       0       0       0
  1482 ;;Total ram usage:        0 bytes
  1483 ;; Hardware stack levels used: 1
  1484 ;; Hardware stack levels required when called: 5
  1485 ;; This function calls:
  1486 ;;		Nothing
  1487 ;; This function is called by:
  1488 ;;		_get_end
  1489 ;; This function uses a non-reentrant model
  1490 ;;
  1491                           
  1492                           	psect	text10
  1493   001A98                     __ptext10:
  1494                           	callstack 0
  1495   001A98                     _disable_timer0:
  1496                           	callstack 23
  1497                           
  1498                           ;main.c: 82:     INTCONbits.TMR0IE = 0;;main.c: 82: 
  1499                           
  1500                           ;incstack = 0
  1501   001A98  9AF2               	bcf	242,5,c	;volatile
  1502                           
  1503                           ;main.c: 83:     T0CONbits.TMR0ON = 0;;main.c: 83: void timer_isr() {
  1504   001A9A  9ED5               	bcf	213,7,c	;volatile
  1505   001A9C  0012               	return		;funcret
  1506   001A9E                     __end_of_disable_timer0:
  1507                           	callstack 0
  1508                           
  1509 ;; *************** function _get_altitude *****************
  1510 ;; Defined at:
  1511 ;;		line 394 in file "main.c"
  1512 ;; Parameters:    Size  Location     Type
  1513 ;;  period          2   25[COMRAM] unsigned short 
  1514 ;; Auto vars:     Size  Location     Type
  1515 ;;		None
  1516 ;; Return value:  Size  Location     Type
  1517 ;;                  1    wreg      void 
  1518 ;; Registers used:
  1519 ;;		wreg, status,2, status,0, cstack
  1520 ;; Tracked objects:
  1521 ;;		On entry : 0/0
  1522 ;;		On exit  : 0/0
  1523 ;;		Unchanged: 0/0
  1524 ;; Data sizes:     COMRAM   BANK0   BANK1   BANK2   BANK3   BANK4   BANK5   BANK6   BANK7   BANK8   BANK9  BANK10  BANK1
      +1  BANK12  BANK13  BANK14  BANK15
  1525 ;;      Params:         2       0       0       0       0       0       0       0       0       0       0       0       
      +0       0       0       0       0
  1526 ;;      Locals:         0       0       0       0       0       0       0       0       0       0       0       0       
      +0       0       0       0       0
  1527 ;;      Temps:          0       0       0       0       0       0       0       0       0       0       0       0       
      +0       0       0       0       0
  1528 ;;      Totals:         2       0       0       0       0       0       0       0       0       0       0       0       
      +0       0       0       0       0
  1529 ;;Total ram usage:        2 bytes
  1530 ;; Hardware stack levels used: 1
  1531 ;; Hardware stack levels required when called: 6
  1532 ;; This function calls:
  1533 ;;		___lwdiv
  1534 ;; This function is called by:
  1535 ;;		_parse
  1536 ;; This function uses a non-reentrant model
  1537 ;;
  1538                           
  1539                           	psect	text11
  1540   0019D2                     __ptext11:
  1541                           	callstack 0
  1542   0019D2                     _get_altitude:
  1543                           	callstack 23
  1544                           
  1545                           ;main.c: 399: }
  1546                           
  1547                           ;incstack = 0
  1548   0019D2  C03D  F036         	movff	get_altitude@period,___lwdiv@dividend
  1549   0019D6  C03E  F037         	movff	get_altitude@period+1,___lwdiv@dividend+1
  1550   0019DA  0E00               	movlw	0
  1551   0019DC  6E39               	movwf	(___lwdiv@divisor+1)^0,c
  1552   0019DE  0E64               	movlw	100
  1553   0019E0  6E38               	movwf	___lwdiv@divisor^0,c
  1554   0019E2  ECCF  F00B         	call	___lwdiv	;wreg free
  1555   0019E6  5036               	movf	?___lwdiv^0,w,c
  1556   0019E8  6E23               	movwf	_altitude_period^0,c
  1557                           
  1558                           ;main.c: 402: 
  1559   0019EA  0E00               	movlw	0
  1560   0019EC  6E22               	movwf	_counter^0,c
  1561   0019EE  0012               	return		;funcret
  1562   0019F0                     __end_of_get_altitude:
  1563                           	callstack 0
  1564                           
  1565 ;; *************** function ___lwdiv *****************
  1566 ;; Defined at:
  1567 ;;		line 7 in file "/opt/microchip/xc8/v2.45/pic/sources/c99/common/lwdiv.c"
  1568 ;; Parameters:    Size  Location     Type
  1569 ;;  dividend        2   18[COMRAM] unsigned int 
  1570 ;;  divisor         2   20[COMRAM] unsigned int 
  1571 ;; Auto vars:     Size  Location     Type
  1572 ;;  quotient        2   22[COMRAM] unsigned int 
  1573 ;;  counter         1   24[COMRAM] unsigned char 
  1574 ;; Return value:  Size  Location     Type
  1575 ;;                  2   18[COMRAM] unsigned int 
  1576 ;; Registers used:
  1577 ;;		wreg, status,2, status,0
  1578 ;; Tracked objects:
  1579 ;;		On entry : 0/0
  1580 ;;		On exit  : 0/0
  1581 ;;		Unchanged: 0/0
  1582 ;; Data sizes:     COMRAM   BANK0   BANK1   BANK2   BANK3   BANK4   BANK5   BANK6   BANK7   BANK8   BANK9  BANK10  BANK1
      +1  BANK12  BANK13  BANK14  BANK15
  1583 ;;      Params:         4       0       0       0       0       0       0       0       0       0       0       0       
      +0       0       0       0       0
  1584 ;;      Locals:         3       0       0       0       0       0       0       0       0       0       0       0       
      +0       0       0       0       0
  1585 ;;      Temps:          0       0       0       0       0       0       0       0       0       0       0       0       
      +0       0       0       0       0
  1586 ;;      Totals:         7       0       0       0       0       0       0       0       0       0       0       0       
      +0       0       0       0       0
  1587 ;;Total ram usage:        7 bytes
  1588 ;; Hardware stack levels used: 1
  1589 ;; Hardware stack levels required when called: 5
  1590 ;; This function calls:
  1591 ;;		Nothing
  1592 ;; This function is called by:
  1593 ;;		_get_altitude
  1594 ;; This function uses a non-reentrant model
  1595 ;;
  1596                           
  1597                           	psect	text12
  1598   00179E                     __ptext12:
  1599                           	callstack 0
  1600   00179E                     ___lwdiv:
  1601                           	callstack 23
  1602                           
  1603                           ;incstack = 0
  1604   00179E  0E00               	movlw	0
  1605   0017A0  6E3B               	movwf	(___lwdiv@quotient+1)^0,c
  1606   0017A2  0E00               	movlw	0
  1607   0017A4  6E3A               	movwf	___lwdiv@quotient^0,c
  1608   0017A6  5038               	movf	___lwdiv@divisor^0,w,c
  1609   0017A8  1039               	iorwf	(___lwdiv@divisor+1)^0,w,c
  1610   0017AA  B4D8               	btfsc	status,2,c
  1611   0017AC  D01C               	goto	l837
  1612   0017AE  0E01               	movlw	1
  1613   0017B0  6E3C               	movwf	___lwdiv@counter^0,c
  1614   0017B2  D004               	goto	l1747
  1615   0017B4                     l1745:
  1616   0017B4  90D8               	bcf	status,0,c
  1617   0017B6  3638               	rlcf	___lwdiv@divisor^0,f,c
  1618   0017B8  3639               	rlcf	(___lwdiv@divisor+1)^0,f,c
  1619   0017BA  2A3C               	incf	___lwdiv@counter^0,f,c
  1620   0017BC                     l1747:
  1621   0017BC  AE39               	btfss	(___lwdiv@divisor+1)^0,7,c
  1622   0017BE  D7FA               	goto	l1745
  1623   0017C0                     u1000:
  1624   0017C0  90D8               	bcf	status,0,c
  1625   0017C2  363A               	rlcf	___lwdiv@quotient^0,f,c
  1626   0017C4  363B               	rlcf	(___lwdiv@quotient+1)^0,f,c
  1627   0017C6  5038               	movf	___lwdiv@divisor^0,w,c
  1628   0017C8  5C36               	subwf	___lwdiv@dividend^0,w,c
  1629   0017CA  5039               	movf	(___lwdiv@divisor+1)^0,w,c
  1630   0017CC  5837               	subwfb	(___lwdiv@dividend+1)^0,w,c
  1631   0017CE  A0D8               	btfss	status,0,c
  1632   0017D0  D005               	goto	l1757
  1633   0017D2  5038               	movf	___lwdiv@divisor^0,w,c
  1634   0017D4  5E36               	subwf	___lwdiv@dividend^0,f,c
  1635   0017D6  5039               	movf	(___lwdiv@divisor+1)^0,w,c
  1636   0017D8  5A37               	subwfb	(___lwdiv@dividend+1)^0,f,c
  1637   0017DA  803A               	bsf	___lwdiv@quotient^0,0,c
  1638   0017DC                     l1757:
  1639   0017DC  90D8               	bcf	status,0,c
  1640   0017DE  3239               	rrcf	(___lwdiv@divisor+1)^0,f,c
  1641   0017E0  3238               	rrcf	___lwdiv@divisor^0,f,c
  1642   0017E2  2E3C               	decfsz	___lwdiv@counter^0,f,c
  1643   0017E4  D7ED               	goto	u1000
  1644   0017E6                     l837:
  1645   0017E6  C03A  F036         	movff	___lwdiv@quotient,?___lwdiv
  1646   0017EA  C03B  F037         	movff	___lwdiv@quotient+1,?___lwdiv+1
  1647   0017EE  0012               	return		;funcret
  1648   0017F0                     __end_of___lwdiv:
  1649                           	callstack 0
  1650                           
  1651 ;; *************** function _disable_interrupts *****************
  1652 ;; Defined at:
  1653 ;;		line 62 in file "main.c"
  1654 ;; Parameters:    Size  Location     Type
  1655 ;;		None
  1656 ;; Auto vars:     Size  Location     Type
  1657 ;;		None
  1658 ;; Return value:  Size  Location     Type
  1659 ;;                  1    wreg      void 
  1660 ;; Registers used:
  1661 ;;		None
  1662 ;; Tracked objects:
  1663 ;;		On entry : 0/0
  1664 ;;		On exit  : 0/0
  1665 ;;		Unchanged: 0/0
  1666 ;; Data sizes:     COMRAM   BANK0   BANK1   BANK2   BANK3   BANK4   BANK5   BANK6   BANK7   BANK8   BANK9  BANK10  BANK1
      +1  BANK12  BANK13  BANK14  BANK15
  1667 ;;      Params:         0       0       0       0       0       0       0       0       0       0       0       0       
      +0       0       0       0       0
  1668 ;;      Locals:         0       0       0       0       0       0       0       0       0       0       0       0       
      +0       0       0       0       0
  1669 ;;      Temps:          0       0       0       0       0       0       0       0       0       0       0       0       
      +0       0       0       0       0
  1670 ;;      Totals:         0       0       0       0       0       0       0       0       0       0       0       0       
      +0       0       0       0       0
  1671 ;;Total ram usage:        0 bytes
  1672 ;; Hardware stack levels used: 1
  1673 ;; Hardware stack levels required when called: 5
  1674 ;; This function calls:
  1675 ;;		Nothing
  1676 ;; This function is called by:
  1677 ;;		_parse
  1678 ;; This function uses a non-reentrant model
  1679 ;;
  1680                           
  1681                           	psect	text13
  1682   001AA2                     __ptext13:
  1683                           	callstack 0
  1684   001AA2                     _disable_interrupts:
  1685                           	callstack 24
  1686                           
  1687                           ;main.c: 63:     INTCONbits.GIE = 0;;main.c: 63: 
  1688                           
  1689                           ;incstack = 0
  1690   001AA2  9EF2               	bcf	242,7,c	;volatile
  1691   001AA4  0012               	return		;funcret
  1692   001AA6                     __end_of_disable_interrupts:
  1693                           	callstack 0
  1694                           
  1695 ;; *************** function _init_vars *****************
  1696 ;; Defined at:
  1697 ;;		line 272 in file "main.c"
  1698 ;; Parameters:    Size  Location     Type
  1699 ;;		None
  1700 ;; Auto vars:     Size  Location     Type
  1701 ;;		None
  1702 ;; Return value:  Size  Location     Type
  1703 ;;                  1    wreg      void 
  1704 ;; Registers used:
  1705 ;;		wreg, status,2
  1706 ;; Tracked objects:
  1707 ;;		On entry : 0/0
  1708 ;;		On exit  : 0/0
  1709 ;;		Unchanged: 0/0
  1710 ;; Data sizes:     COMRAM   BANK0   BANK1   BANK2   BANK3   BANK4   BANK5   BANK6   BANK7   BANK8   BANK9  BANK10  BANK1
      +1  BANK12  BANK13  BANK14  BANK15
  1711 ;;      Params:         0       0       0       0       0       0       0       0       0       0       0       0       
      +0       0       0       0       0
  1712 ;;      Locals:         0       0       0       0       0       0       0       0       0       0       0       0       
      +0       0       0       0       0
  1713 ;;      Temps:          0       0       0       0       0       0       0       0       0       0       0       0       
      +0       0       0       0       0
  1714 ;;      Totals:         0       0       0       0       0       0       0       0       0       0       0       0       
      +0       0       0       0       0
  1715 ;;Total ram usage:        0 bytes
  1716 ;; Hardware stack levels used: 1
  1717 ;; Hardware stack levels required when called: 5
  1718 ;; This function calls:
  1719 ;;		Nothing
  1720 ;; This function is called by:
  1721 ;;		_main
  1722 ;; This function uses a non-reentrant model
  1723 ;;
  1724                           
  1725                           	psect	text14
  1726   001564                     __ptext14:
  1727                           	callstack 0
  1728   001564                     _init_vars:
  1729                           	callstack 25
  1730                           
  1731                           ;main.c: 273: void get_altitude(uint16_t period) {
  1732                           
  1733                           ;incstack = 0
  1734   001564  0E00               	movlw	0
  1735   001566  6E1B               	movwf	(_dist+1)^0,c
  1736   001568  0E00               	movlw	0
  1737   00156A  6E1A               	movwf	_dist^0,c
  1738                           
  1739                           ;main.c: 274: 
  1740   00156C  0E00               	movlw	0
  1741   00156E  6E23               	movwf	_altitude_period^0,c
  1742                           
  1743                           ;main.c: 275: 
  1744   001570  0E00               	movlw	0
  1745   001572  6E21               	movwf	_is_manual^0,c
  1746                           
  1747                           ;main.c: 276: 
  1748   001574  0E00               	movlw	0
  1749   001576  6E19               	movwf	(_adc+1)^0,c
  1750   001578  0E00               	movlw	0
  1751   00157A  6E18               	movwf	_adc^0,c
  1752                           
  1753                           ;main.c: 277: 
  1754   00157C  0E00               	movlw	0
  1755   00157E  6E22               	movwf	_counter^0,c
  1756                           
  1757                           ;main.c: 278:     altitude_period = (AltitudePeriod) (period / 100);
  1758   001580  0E00               	movlw	0
  1759   001582  6E17               	movwf	(_speed+1)^0,c
  1760   001584  0E00               	movlw	0
  1761   001586  6E16               	movwf	_speed^0,c
  1762                           
  1763                           ;main.c: 279: 
  1764   001588  0E00               	movlw	0
  1765   00158A  6E20               	movwf	_parse_state^0,c
  1766                           
  1767                           ;main.c: 280: 
  1768   00158C  0E00               	movlw	0
  1769   00158E  6E1E               	movwf	_message_pos^0,c
  1770                           
  1771                           ;main.c: 281:     counter = 0;
  1772   001590  0E00               	movlw	0
  1773   001592  6E15               	movwf	(_parsed_number+1)^0,c
  1774   001594  0E00               	movlw	0
  1775   001596  6E14               	movwf	_parsed_number^0,c
  1776                           
  1777                           ;main.c: 282: }
  1778   001598  0E00               	movlw	0
  1779   00159A  6E1D               	movwf	_digit_count_to_be_parsed^0,c
  1780                           
  1781                           ;main.c: 283: 
  1782   00159C  0E00               	movlw	0
  1783   00159E  6E1C               	movwf	_parsed_digit_count^0,c
  1784                           
  1785                           ;main.c: 284: 
  1786   0015A0  0E00               	movlw	0
  1787   0015A2  6E0C               	movwf	(_portb_prev+3)^0,c
  1788   0015A4  C00C  F00B         	movff	_portb_prev+3,_portb_prev+2
  1789   0015A8  C00B  F00A         	movff	_portb_prev+2,_portb_prev+1
  1790   0015AC  C00A  F009         	movff	_portb_prev+1,_portb_prev
  1791                           
  1792                           ;main.c: 285: void get_manual(uint8_t activation) {
  1793   0015B0  0E00               	movlw	0
  1794   0015B2  6E08               	movwf	(_portb_enable+3)^0,c
  1795   0015B4  C008  F007         	movff	_portb_enable+3,_portb_enable+2
  1796   0015B8  C007  F006         	movff	_portb_enable+2,_portb_enable+1
  1797   0015BC  C006  F005         	movff	_portb_enable+1,_portb_enable
  1798                           
  1799                           ;main.c: 286:     is_manual = activation;
  1800   0015C0  0E00               	movlw	0
  1801   0015C2  6E04               	movwf	(_portb_send+3)^0,c
  1802   0015C4  C004  F003         	movff	_portb_send+3,_portb_send+2
  1803   0015C8  C003  F002         	movff	_portb_send+2,_portb_send+1
  1804   0015CC  C002  F001         	movff	_portb_send+1,_portb_send
  1805                           
  1806                           ;main.c: 288:         INTCONbits.RBIE = 1;
  1807   0015D0  0E00               	movlw	0
  1808   0015D2  6E12               	movwf	_head^0,c
  1809                           
  1810                           ;main.c: 289:     } else {
  1811   0015D4  0E00               	movlw	0
  1812   0015D6  6E13               	movwf	(_head+1)^0,c
  1813                           
  1814                           ;main.c: 290:         INTCONbits.RBIE = 0;
  1815   0015D8  0E00               	movlw	0
  1816   0015DA  6E10               	movwf	_tail^0,c
  1817                           
  1818                           ;main.c: 291:     }
  1819   0015DC  0E00               	movlw	0
  1820   0015DE  6E11               	movwf	(_tail+1)^0,c
  1821   0015E0  0012               	return		;funcret
  1822   0015E2                     __end_of_init_vars:
  1823                           	callstack 0
  1824                           
  1825 ;; *************** function _init_timer *****************
  1826 ;; Defined at:
  1827 ;;		line 360 in file "main.c"
  1828 ;; Parameters:    Size  Location     Type
  1829 ;;		None
  1830 ;; Auto vars:     Size  Location     Type
  1831 ;;		None
  1832 ;; Return value:  Size  Location     Type
  1833 ;;                  1    wreg      void 
  1834 ;; Registers used:
  1835 ;;		wreg, status,2
  1836 ;; Tracked objects:
  1837 ;;		On entry : 0/0
  1838 ;;		On exit  : 0/0
  1839 ;;		Unchanged: 0/0
  1840 ;; Data sizes:     COMRAM   BANK0   BANK1   BANK2   BANK3   BANK4   BANK5   BANK6   BANK7   BANK8   BANK9  BANK10  BANK1
      +1  BANK12  BANK13  BANK14  BANK15
  1841 ;;      Params:         0       0       0       0       0       0       0       0       0       0       0       0       
      +0       0       0       0       0
  1842 ;;      Locals:         0       0       0       0       0       0       0       0       0       0       0       0       
      +0       0       0       0       0
  1843 ;;      Temps:          0       0       0       0       0       0       0       0       0       0       0       0       
      +0       0       0       0       0
  1844 ;;      Totals:         0       0       0       0       0       0       0       0       0       0       0       0       
      +0       0       0       0       0
  1845 ;;Total ram usage:        0 bytes
  1846 ;; Hardware stack levels used: 1
  1847 ;; Hardware stack levels required when called: 5
  1848 ;; This function calls:
  1849 ;;		Nothing
  1850 ;; This function is called by:
  1851 ;;		_main
  1852 ;; This function uses a non-reentrant model
  1853 ;;
  1854                           
  1855                           	psect	text15
  1856   001A70                     __ptext15:
  1857                           	callstack 0
  1858   001A70                     _init_timer:
  1859                           	callstack 25
  1860                           
  1861                           ;main.c: 362: 
  1862                           
  1863                           ;incstack = 0
  1864   001A70  0E03               	movlw	3
  1865   001A72  6ED5               	movwf	213,c	;volatile
  1866                           
  1867                           ;main.c: 365:     uint8_t nibble1 = distance & 0xF;
  1868   001A74  0E0B               	movlw	11
  1869   001A76  6ED7               	movwf	215,c	;volatile
  1870                           
  1871                           ;main.c: 366:     distance >>= 4;
  1872   001A78  0EDE               	movlw	222
  1873   001A7A  6ED6               	movwf	214,c	;volatile
  1874   001A7C  0012               	return		;funcret
  1875   001A7E                     __end_of_init_timer:
  1876                           	callstack 0
  1877                           
  1878 ;; *************** function _init_serial *****************
  1879 ;; Defined at:
  1880 ;;		line 315 in file "main.c"
  1881 ;; Parameters:    Size  Location     Type
  1882 ;;		None
  1883 ;; Auto vars:     Size  Location     Type
  1884 ;;		None
  1885 ;; Return value:  Size  Location     Type
  1886 ;;                  1    wreg      void 
  1887 ;; Registers used:
  1888 ;;		wreg, status,2
  1889 ;; Tracked objects:
  1890 ;;		On entry : 0/0
  1891 ;;		On exit  : 0/0
  1892 ;;		Unchanged: 0/0
  1893 ;; Data sizes:     COMRAM   BANK0   BANK1   BANK2   BANK3   BANK4   BANK5   BANK6   BANK7   BANK8   BANK9  BANK10  BANK1
      +1  BANK12  BANK13  BANK14  BANK15
  1894 ;;      Params:         0       0       0       0       0       0       0       0       0       0       0       0       
      +0       0       0       0       0
  1895 ;;      Locals:         0       0       0       0       0       0       0       0       0       0       0       0       
      +0       0       0       0       0
  1896 ;;      Temps:          0       0       0       0       0       0       0       0       0       0       0       0       
      +0       0       0       0       0
  1897 ;;      Totals:         0       0       0       0       0       0       0       0       0       0       0       0       
      +0       0       0       0       0
  1898 ;;Total ram usage:        0 bytes
  1899 ;; Hardware stack levels used: 1
  1900 ;; Hardware stack levels required when called: 5
  1901 ;; This function calls:
  1902 ;;		Nothing
  1903 ;; This function is called by:
  1904 ;;		_main
  1905 ;; This function uses a non-reentrant model
  1906 ;;
  1907                           
  1908                           	psect	text16
  1909   001A06                     __ptext16:
  1910                           	callstack 0
  1911   001A06                     _init_serial:
  1912                           	callstack 25
  1913                           
  1914                           ;main.c: 320: 
  1915                           
  1916                           ;incstack = 0
  1917   001A06  98AC               	bcf	172,4,c	;volatile
  1918                           
  1919                           ;main.c: 321:             LATBbits.LB0 = 1;
  1920   001A08  967E               	bcf	126,3,c	;volatile
  1921                           
  1922                           ;main.c: 322:             portb_enable[2] = 1;
  1923   001A0A  84AC               	bsf	172,2,c	;volatile
  1924                           
  1925                           ;main.c: 323:             break;
  1926   001A0C  0E15               	movlw	21
  1927   001A0E  6EAF               	movwf	175,c	;volatile
  1928                           
  1929                           ;main.c: 325: 
  1930   001A10  8EAB               	bsf	171,7,c	;volatile
  1931                           
  1932                           ;main.c: 326:             LATAbits.LA0 = 1;
  1933   001A12  889D               	bsf	157,4,c	;volatile
  1934                           
  1935                           ;main.c: 327:             portb_enable[3] = 1;
  1936   001A14  8A9D               	bsf	157,5,c	;volatile
  1937                           
  1938                           ;main.c: 328:             break;
  1939   001A16  88AB               	bsf	171,4,c	;volatile
  1940   001A18  0012               	return		;funcret
  1941   001A1A                     __end_of_init_serial:
  1942                           	callstack 0
  1943                           
  1944 ;; *************** function _init_ports *****************
  1945 ;; Defined at:
  1946 ;;		line 295 in file "main.c"
  1947 ;; Parameters:    Size  Location     Type
  1948 ;;		None
  1949 ;; Auto vars:     Size  Location     Type
  1950 ;;		None
  1951 ;; Return value:  Size  Location     Type
  1952 ;;                  1    wreg      void 
  1953 ;; Registers used:
  1954 ;;		wreg, status,2
  1955 ;; Tracked objects:
  1956 ;;		On entry : 0/0
  1957 ;;		On exit  : 0/0
  1958 ;;		Unchanged: 0/0
  1959 ;; Data sizes:     COMRAM   BANK0   BANK1   BANK2   BANK3   BANK4   BANK5   BANK6   BANK7   BANK8   BANK9  BANK10  BANK1
      +1  BANK12  BANK13  BANK14  BANK15
  1960 ;;      Params:         0       0       0       0       0       0       0       0       0       0       0       0       
      +0       0       0       0       0
  1961 ;;      Locals:         0       0       0       0       0       0       0       0       0       0       0       0       
      +0       0       0       0       0
  1962 ;;      Temps:          0       0       0       0       0       0       0       0       0       0       0       0       
      +0       0       0       0       0
  1963 ;;      Totals:         0       0       0       0       0       0       0       0       0       0       0       0       
      +0       0       0       0       0
  1964 ;;Total ram usage:        0 bytes
  1965 ;; Hardware stack levels used: 1
  1966 ;; Hardware stack levels required when called: 5
  1967 ;; This function calls:
  1968 ;;		Nothing
  1969 ;; This function is called by:
  1970 ;;		_main
  1971 ;; This function uses a non-reentrant model
  1972 ;;
  1973                           
  1974                           	psect	text17
  1975   001872                     __ptext17:
  1976                           	callstack 0
  1977   001872                     _init_ports:
  1978                           	callstack 25
  1979                           
  1980                           ;main.c: 296:     switch (led) {
  1981                           
  1982                           ;incstack = 0
  1983   001872  0EFE               	movlw	254
  1984   001874  6E92               	movwf	146,c	;volatile
  1985                           
  1986                           ;main.c: 297:         case 0:
  1987   001876  0EFE               	movlw	254
  1988   001878  6E93               	movwf	147,c	;volatile
  1989                           
  1990                           ;main.c: 298: 
  1991   00187A  0EFE               	movlw	254
  1992   00187C  6E94               	movwf	148,c	;volatile
  1993                           
  1994                           ;main.c: 299:             LATAbits.LA0 = 0;
  1995   00187E  0EFE               	movlw	254
  1996   001880  6E95               	movwf	149,c	;volatile
  1997                           
  1998                           ;main.c: 300:             LATBbits.LB0 = 0;
  1999   001882  0E10               	movlw	16
  2000   001884  6E99               	movwf	153,c	;volatile
  2001                           
  2002                           ;main.c: 302:             LATDbits.LD0 = 0;
  2003   001886  0E00               	movlw	0
  2004   001888  6E80               	movwf	128,c	;volatile
  2005                           
  2006                           ;main.c: 303: 
  2007   00188A  0E00               	movlw	0
  2008   00188C  6E81               	movwf	129,c	;volatile
  2009                           
  2010                           ;main.c: 304:             portb_enable[0] = 0;
  2011   00188E  0E00               	movlw	0
  2012   001890  6E82               	movwf	130,c	;volatile
  2013                           
  2014                           ;main.c: 305:             portb_enable[1] = 0;
  2015   001892  0E00               	movlw	0
  2016   001894  6E83               	movwf	131,c	;volatile
  2017                           
  2018                           ;main.c: 306:             portb_enable[2] = 0;
  2019   001896  0E00               	movlw	0
  2020   001898  6E87               	movwf	135,c	;volatile
  2021                           
  2022                           ;main.c: 307:             portb_enable[3] = 0;
  2023   00189A  0E00               	movlw	0
  2024   00189C  6E89               	movwf	137,c	;volatile
  2025                           
  2026                           ;main.c: 308:             break;
  2027   00189E  0E00               	movlw	0
  2028   0018A0  6E8A               	movwf	138,c	;volatile
  2029                           
  2030                           ;main.c: 309:         case 1:
  2031   0018A2  0E00               	movlw	0
  2032   0018A4  6E8B               	movwf	139,c	;volatile
  2033                           
  2034                           ;main.c: 310: 
  2035   0018A6  0E00               	movlw	0
  2036   0018A8  6E8C               	movwf	140,c	;volatile
  2037                           
  2038                           ;main.c: 311:             LATDbits.LD0 = 1;
  2039   0018AA  0E00               	movlw	0
  2040   0018AC  6E90               	movwf	144,c	;volatile
  2041   0018AE  0012               	return		;funcret
  2042   0018B0                     __end_of_init_ports:
  2043                           	callstack 0
  2044                           
  2045 ;; *************** function _init_interrupts *****************
  2046 ;; Defined at:
  2047 ;;		line 332 in file "main.c"
  2048 ;; Parameters:    Size  Location     Type
  2049 ;;		None
  2050 ;; Auto vars:     Size  Location     Type
  2051 ;;		None
  2052 ;; Return value:  Size  Location     Type
  2053 ;;                  1    wreg      void 
  2054 ;; Registers used:
  2055 ;;		cstack
  2056 ;; Tracked objects:
  2057 ;;		On entry : 0/0
  2058 ;;		On exit  : 0/0
  2059 ;;		Unchanged: 0/0
  2060 ;; Data sizes:     COMRAM   BANK0   BANK1   BANK2   BANK3   BANK4   BANK5   BANK6   BANK7   BANK8   BANK9  BANK10  BANK1
      +1  BANK12  BANK13  BANK14  BANK15
  2061 ;;      Params:         0       0       0       0       0       0       0       0       0       0       0       0       
      +0       0       0       0       0
  2062 ;;      Locals:         0       0       0       0       0       0       0       0       0       0       0       0       
      +0       0       0       0       0
  2063 ;;      Temps:          0       0       0       0       0       0       0       0       0       0       0       0       
      +0       0       0       0       0
  2064 ;;      Totals:         0       0       0       0       0       0       0       0       0       0       0       0       
      +0       0       0       0       0
  2065 ;;Total ram usage:        0 bytes
  2066 ;; Hardware stack levels used: 1
  2067 ;; Hardware stack levels required when called: 6
  2068 ;; This function calls:
  2069 ;;		_enable_interrupts
  2070 ;; This function is called by:
  2071 ;;		_main
  2072 ;; This function uses a non-reentrant model
  2073 ;;
  2074                           
  2075                           	psect	text18
  2076   001A52                     __ptext18:
  2077                           	callstack 0
  2078   001A52                     _init_interrupts:
  2079                           	callstack 24
  2080                           
  2081                           ;main.c: 334:     if (nibble < 10) {
  2082                           
  2083                           ;incstack = 0
  2084   001A52  8CF2               	bsf	242,6,c	;volatile
  2085                           
  2086                           ;main.c: 337:         return nibble + 'A' - 10;
  2087   001A54  8A9D               	bsf	157,5,c	;volatile
  2088                           
  2089                           ;main.c: 338:     }
  2090   001A56  889D               	bsf	157,4,c	;volatile
  2091                           
  2092                           ;main.c: 341: 
  2093   001A58  8C9D               	bsf	157,6,c	;volatile
  2094                           
  2095                           ;main.c: 344:     if ('0' <= character && character <= '9') {
  2096   001A5A  86F2               	bsf	242,3,c	;volatile
  2097                           
  2098                           ;main.c: 347:         return character - 'a' + 10;
  2099   001A5C  EC53  F00D         	call	_enable_interrupts	;wreg free
  2100   001A60  0012               	return		;funcret
  2101   001A62                     __end_of_init_interrupts:
  2102                           	callstack 0
  2103                           
  2104 ;; *************** function _enable_interrupts *****************
  2105 ;; Defined at:
  2106 ;;		line 68 in file "main.c"
  2107 ;; Parameters:    Size  Location     Type
  2108 ;;		None
  2109 ;; Auto vars:     Size  Location     Type
  2110 ;;		None
  2111 ;; Return value:  Size  Location     Type
  2112 ;;                  1    wreg      void 
  2113 ;; Registers used:
  2114 ;;		None
  2115 ;; Tracked objects:
  2116 ;;		On entry : 0/0
  2117 ;;		On exit  : 0/0
  2118 ;;		Unchanged: 0/0
  2119 ;; Data sizes:     COMRAM   BANK0   BANK1   BANK2   BANK3   BANK4   BANK5   BANK6   BANK7   BANK8   BANK9  BANK10  BANK1
      +1  BANK12  BANK13  BANK14  BANK15
  2120 ;;      Params:         0       0       0       0       0       0       0       0       0       0       0       0       
      +0       0       0       0       0
  2121 ;;      Locals:         0       0       0       0       0       0       0       0       0       0       0       0       
      +0       0       0       0       0
  2122 ;;      Temps:          0       0       0       0       0       0       0       0       0       0       0       0       
      +0       0       0       0       0
  2123 ;;      Totals:         0       0       0       0       0       0       0       0       0       0       0       0       
      +0       0       0       0       0
  2124 ;;Total ram usage:        0 bytes
  2125 ;; Hardware stack levels used: 1
  2126 ;; Hardware stack levels required when called: 5
  2127 ;; This function calls:
  2128 ;;		Nothing
  2129 ;; This function is called by:
  2130 ;;		_init_interrupts
  2131 ;;		_parse
  2132 ;; This function uses a non-reentrant model
  2133 ;;
  2134                           
  2135                           	psect	text19
  2136   001AA6                     __ptext19:
  2137                           	callstack 0
  2138   001AA6                     _enable_interrupts:
  2139                           	callstack 24
  2140                           
  2141                           ;main.c: 69:     INTCONbits.GIE = 1;;main.c: 69:     PIR1bits.RC1IF = 0;
  2142                           
  2143                           ;incstack = 0
  2144   001AA6  8EF2               	bsf	242,7,c	;volatile
  2145   001AA8  0012               	return		;funcret
  2146   001AAA                     __end_of_enable_interrupts:
  2147                           	callstack 0
  2148                           
  2149 ;; *************** function _init_adc *****************
  2150 ;; Defined at:
  2151 ;;		line 351 in file "main.c"
  2152 ;; Parameters:    Size  Location     Type
  2153 ;;		None
  2154 ;; Auto vars:     Size  Location     Type
  2155 ;;		None
  2156 ;; Return value:  Size  Location     Type
  2157 ;;                  1    wreg      void 
  2158 ;; Registers used:
  2159 ;;		wreg, status,2
  2160 ;; Tracked objects:
  2161 ;;		On entry : 0/0
  2162 ;;		On exit  : 0/0
  2163 ;;		Unchanged: 0/0
  2164 ;; Data sizes:     COMRAM   BANK0   BANK1   BANK2   BANK3   BANK4   BANK5   BANK6   BANK7   BANK8   BANK9  BANK10  BANK1
      +1  BANK12  BANK13  BANK14  BANK15
  2165 ;;      Params:         0       0       0       0       0       0       0       0       0       0       0       0       
      +0       0       0       0       0
  2166 ;;      Locals:         0       0       0       0       0       0       0       0       0       0       0       0       
      +0       0       0       0       0
  2167 ;;      Temps:          0       0       0       0       0       0       0       0       0       0       0       0       
      +0       0       0       0       0
  2168 ;;      Totals:         0       0       0       0       0       0       0       0       0       0       0       0       
      +0       0       0       0       0
  2169 ;;Total ram usage:        0 bytes
  2170 ;; Hardware stack levels used: 1
  2171 ;; Hardware stack levels required when called: 5
  2172 ;; This function calls:
  2173 ;;		Nothing
  2174 ;; This function is called by:
  2175 ;;		_main
  2176 ;; This function uses a non-reentrant model
  2177 ;;
  2178                           
  2179                           	psect	text20
  2180   0019F0                     __ptext20:
  2181                           	callstack 0
  2182   0019F0                     _init_adc:
  2183                           	callstack 25
  2184                           
  2185                           ;main.c: 352: }
  2186                           
  2187                           ;incstack = 0
  2188   0019F0  0E31               	movlw	49
  2189   0019F2  6EC2               	movwf	194,c	;volatile
  2190                           
  2191                           ;main.c: 353: 
  2192   0019F4  0E00               	movlw	0
  2193   0019F6  6EC1               	movwf	193,c	;volatile
  2194                           
  2195                           ;main.c: 354: 
  2196   0019F8  0EAA               	movlw	170
  2197   0019FA  6EC0               	movwf	192,c	;volatile
  2198                           
  2199                           ;main.c: 355: void send() {
  2200   0019FC  0E00               	movlw	0
  2201   0019FE  6EC4               	movwf	196,c	;volatile
  2202                           
  2203                           ;main.c: 356:     TXSTA1bits.TXEN = 1;
  2204   001A00  0E00               	movlw	0
  2205   001A02  6EC3               	movwf	195,c	;volatile
  2206   001A04  0012               	return		;funcret
  2207   001A06                     __end_of_init_adc:
  2208                           	callstack 0
  2209                           
  2210 ;; *************** function _adc_task *****************
  2211 ;; Defined at:
  2212 ;;		line 755 in file "main.c"
  2213 ;; Parameters:    Size  Location     Type
  2214 ;;		None
  2215 ;; Auto vars:     Size  Location     Type
  2216 ;;		None
  2217 ;; Return value:  Size  Location     Type
  2218 ;;                  1    wreg      void 
  2219 ;; Registers used:
  2220 ;;		wreg, status,2
  2221 ;; Tracked objects:
  2222 ;;		On entry : 0/0
  2223 ;;		On exit  : 0/0
  2224 ;;		Unchanged: 0/0
  2225 ;; Data sizes:     COMRAM   BANK0   BANK1   BANK2   BANK3   BANK4   BANK5   BANK6   BANK7   BANK8   BANK9  BANK10  BANK1
      +1  BANK12  BANK13  BANK14  BANK15
  2226 ;;      Params:         0       0       0       0       0       0       0       0       0       0       0       0       
      +0       0       0       0       0
  2227 ;;      Locals:         0       0       0       0       0       0       0       0       0       0       0       0       
      +0       0       0       0       0
  2228 ;;      Temps:          0       0       0       0       0       0       0       0       0       0       0       0       
      +0       0       0       0       0
  2229 ;;      Totals:         0       0       0       0       0       0       0       0       0       0       0       0       
      +0       0       0       0       0
  2230 ;;Total ram usage:        0 bytes
  2231 ;; Hardware stack levels used: 1
  2232 ;; Hardware stack levels required when called: 5
  2233 ;; This function calls:
  2234 ;;		Nothing
  2235 ;; This function is called by:
  2236 ;;		_main
  2237 ;; This function uses a non-reentrant model
  2238 ;;
  2239                           
  2240                           	psect	text21
  2241   001A88                     __ptext21:
  2242                           	callstack 0
  2243   001A88                     _adc_task:
  2244                           	callstack 25
  2245                           
  2246                           ;incstack = 0
  2247   001A88  5023               	movf	_altitude_period^0,w,c
  2248   001A8A  B4D8               	btfsc	status,2,c
  2249   001A8C  0012               	return	
  2250   001A8E  82C2               	bsf	194,1,c	;volatile
  2251   001A90  0012               	return		;funcret
  2252   001A92                     __end_of_adc_task:
  2253                           	callstack 0
  2254                           
  2255 ;; *************** function _lowPriorityISR *****************
  2256 ;; Defined at:
  2257 ;;		line 265 in file "main.c"
  2258 ;; Parameters:    Size  Location     Type
  2259 ;;		None
  2260 ;; Auto vars:     Size  Location     Type
  2261 ;;		None
  2262 ;; Return value:  Size  Location     Type
  2263 ;;                  1    wreg      void 
  2264 ;; Registers used:
  2265 ;;		None
  2266 ;; Tracked objects:
  2267 ;;		On entry : 0/0
  2268 ;;		On exit  : 0/0
  2269 ;;		Unchanged: 0/0
  2270 ;; Data sizes:     COMRAM   BANK0   BANK1   BANK2   BANK3   BANK4   BANK5   BANK6   BANK7   BANK8   BANK9  BANK10  BANK1
      +1  BANK12  BANK13  BANK14  BANK15
  2271 ;;      Params:         0       0       0       0       0       0       0       0       0       0       0       0       
      +0       0       0       0       0
  2272 ;;      Locals:         0       0       0       0       0       0       0       0       0       0       0       0       
      +0       0       0       0       0
  2273 ;;      Temps:          1       0       0       0       0       0       0       0       0       0       0       0       
      +0       0       0       0       0
  2274 ;;      Totals:         1       0       0       0       0       0       0       0       0       0       0       0       
      +0       0       0       0       0
  2275 ;;Total ram usage:        1 bytes
  2276 ;; Hardware stack levels used: 1
  2277 ;; Hardware stack levels required when called: 4
  2278 ;; This function calls:
  2279 ;;		Nothing
  2280 ;; This function is called by:
  2281 ;;		Interrupt level 1
  2282 ;; This function uses a non-reentrant model
  2283 ;;
  2284                           
  2285                           	psect	intcodelo
  2286   000018                     __pintcodelo:
  2287                           	callstack 0
  2288   000018                     _lowPriorityISR:
  2289                           	callstack 23
  2290                           
  2291                           ;incstack = 0
  2292   000018  8045               	bsf	btemp,0,c	;set compiler interrupt flag (level 1)
  2293   00001A  CFE0 F035          	movff	bsr,??_lowPriorityISR
  2294   00001E  C035  FFE0         	movff	??_lowPriorityISR,bsr
  2295   000022  9045               	bcf	btemp,0,c	;clear compiler interrupt flag (level 1)
  2296   000024  0010               	retfie	
  2297   000026                     __end_of_lowPriorityISR:
  2298                           	callstack 0
  2299                           
  2300 ;; *************** function _highPriorityISR *****************
  2301 ;; Defined at:
  2302 ;;		line 256 in file "main.c"
  2303 ;; Parameters:    Size  Location     Type
  2304 ;;		None
  2305 ;; Auto vars:     Size  Location     Type
  2306 ;;		None
  2307 ;; Return value:  Size  Location     Type
  2308 ;;                  1    wreg      void 
  2309 ;; Registers used:
  2310 ;;		wreg, fsr1l, fsr1h, fsr2l, fsr2h, status,2, status,0, cstack
  2311 ;; Tracked objects:
  2312 ;;		On entry : 0/0
  2313 ;;		On exit  : 0/0
  2314 ;;		Unchanged: 0/0
  2315 ;; Data sizes:     COMRAM   BANK0   BANK1   BANK2   BANK3   BANK4   BANK5   BANK6   BANK7   BANK8   BANK9  BANK10  BANK1
      +1  BANK12  BANK13  BANK14  BANK15
  2316 ;;      Params:         0       0       0       0       0       0       0       0       0       0       0       0       
      +0       0       0       0       0
  2317 ;;      Locals:         0       0       0       0       0       0       0       0       0       0       0       0       
      +0       0       0       0       0
  2318 ;;      Temps:          4       0       0       0       0       0       0       0       0       0       0       0       
      +0       0       0       0       0
  2319 ;;      Totals:         4       0       0       0       0       0       0       0       0       0       0       0       
      +0       0       0       0       0
  2320 ;;Total ram usage:        4 bytes
  2321 ;; Hardware stack levels used: 1
  2322 ;; Hardware stack levels required when called: 3
  2323 ;; This function calls:
  2324 ;;		_adc_isr
  2325 ;;		_portb_isr
  2326 ;;		_receive_isr
  2327 ;;		_timer_isr
  2328 ;;		_transmit_isr
  2329 ;; This function is called by:
  2330 ;;		Interrupt level 2
  2331 ;; This function uses a non-reentrant model
  2332 ;;
  2333                           
  2334                           	psect	intcode
  2335   000008                     __pintcode:
  2336                           	callstack 0
  2337   000008                     _highPriorityISR:
  2338                           	callstack 23
  2339                           
  2340                           ;incstack = 0
  2341   000008  8245               	bsf	btemp,1,c	;set compiler interrupt flag (level 2)
  2342   00000A  EDF8  F00B         	call	int_func,f	;refresh shadow registers
  2343                           
  2344                           	psect	intcode_body
  2345   0017F0                     __pintcode_body:
  2346                           	callstack 23
  2347   0017F0                     int_func:
  2348                           	callstack 23
  2349   0017F0  0006               	pop		; remove dummy address from shadow register refresh
  2350   0017F2  CFE1 F031          	movff	fsr1l,??_highPriorityISR
  2351   0017F6  CFE2 F032          	movff	fsr1h,??_highPriorityISR+1
  2352   0017FA  CFD9 F033          	movff	fsr2l,??_highPriorityISR+2
  2353   0017FE  CFDA F034          	movff	fsr2h,??_highPriorityISR+3
  2354                           
  2355                           ;main.c: 258: }
  2356   001802  BA9E               	btfsc	158,5,c	;volatile
  2357   001804  EC17  F00D         	call	_receive_isr	;wreg free
  2358                           
  2359                           ;main.c: 259: 
  2360   001808  B89E               	btfsc	158,4,c	;volatile
  2361   00180A  ECCA  F00C         	call	_transmit_isr	;wreg free
  2362                           
  2363                           ;main.c: 260: 
  2364   00180E  B4F2               	btfsc	242,2,c	;volatile
  2365   001810  EC08  F00A         	call	_timer_isr	;wreg free
  2366                           
  2367                           ;main.c: 261: void get_end() {
  2368   001814  B0F2               	btfsc	242,0,c	;volatile
  2369   001816  EC5D  F00A         	call	_portb_isr	;wreg free
  2370                           
  2371                           ;main.c: 262:     dist = 0;
  2372   00181A  BC9E               	btfsc	158,6,c	;volatile
  2373   00181C  ECB9  F00C         	call	_adc_isr	;wreg free
  2374   001820  C034  FFDA         	movff	??_highPriorityISR+3,fsr2h
  2375   001824  C033  FFD9         	movff	??_highPriorityISR+2,fsr2l
  2376   001828  C032  FFE2         	movff	??_highPriorityISR+1,fsr1h
  2377   00182C  C031  FFE1         	movff	??_highPriorityISR,fsr1l
  2378   001830  9245               	bcf	btemp,1,c	;clear compiler interrupt flag (level 2)
  2379   001832  0011               	retfie		f
  2380   001834                     __end_of_highPriorityISR:
  2381                           	callstack 0
  2382                           
  2383 ;; *************** function _transmit_isr *****************
  2384 ;; Defined at:
  2385 ;;		line 193 in file "main.c"
  2386 ;; Parameters:    Size  Location     Type
  2387 ;;		None
  2388 ;; Auto vars:     Size  Location     Type
  2389 ;;		None
  2390 ;; Return value:  Size  Location     Type
  2391 ;;                  1    wreg      void 
  2392 ;; Registers used:
  2393 ;;		wreg, fsr1l, fsr1h, fsr2l, fsr2h, status,2, status,0, cstack
  2394 ;; Tracked objects:
  2395 ;;		On entry : 0/0
  2396 ;;		On exit  : 0/0
  2397 ;;		Unchanged: 0/0
  2398 ;; Data sizes:     COMRAM   BANK0   BANK1   BANK2   BANK3   BANK4   BANK5   BANK6   BANK7   BANK8   BANK9  BANK10  BANK1
      +1  BANK12  BANK13  BANK14  BANK15
  2399 ;;      Params:         0       0       0       0       0       0       0       0       0       0       0       0       
      +0       0       0       0       0
  2400 ;;      Locals:         0       0       0       0       0       0       0       0       0       0       0       0       
      +0       0       0       0       0
  2401 ;;      Temps:          0       0       0       0       0       0       0       0       0       0       0       0       
      +0       0       0       0       0
  2402 ;;      Totals:         0       0       0       0       0       0       0       0       0       0       0       0       
      +0       0       0       0       0
  2403 ;;Total ram usage:        0 bytes
  2404 ;; Hardware stack levels used: 1
  2405 ;; Hardware stack levels required when called: 2
  2406 ;; This function calls:
  2407 ;;		_buf_isempty
  2408 ;;		_buf_pop
  2409 ;; This function is called by:
  2410 ;;		_highPriorityISR
  2411 ;; This function uses a non-reentrant model
  2412 ;;
  2413                           
  2414                           	psect	text24
  2415   001994                     __ptext24:
  2416                           	callstack 0
  2417   001994                     _transmit_isr:
  2418                           	callstack 23
  2419                           
  2420                           ;main.c: 194: void init_serial() {
  2421                           
  2422                           ;incstack = 0
  2423   001994  989E               	bcf	158,4,c	;volatile
  2424                           
  2425                           ;main.c: 196: 
  2426   001996  0E01               	movlw	1
  2427   001998  ECA8  F00C         	call	_buf_isempty
  2428   00199C  0900               	iorlw	0
  2429   00199E  B4D8               	btfsc	status,2,c
  2430   0019A0  D004               	goto	i2l1961
  2431   0019A2                     i2u114_40:
  2432   0019A2  A2AC               	btfss	172,1,c	;volatile
  2433   0019A4  D7FE               	goto	i2u114_40
  2434                           
  2435                           ;main.c: 198: 
  2436   0019A6  9AAC               	bcf	172,5,c	;volatile
  2437                           
  2438                           ;main.c: 199:     TXSTA1bits.SYNC = 0;
  2439   0019A8  0012               	return	
  2440   0019AA                     i2l1961:
  2441                           
  2442                           ;main.c: 200:     BAUDCON1bits.BRG16 = 0;
  2443   0019AA  0E01               	movlw	1
  2444   0019AC  EC2D  F00B         	call	_buf_pop
  2445   0019B0  6EAD               	movwf	173,c	;volatile
  2446   0019B2  0012               	return		;funcret
  2447   0019B4                     __end_of_transmit_isr:
  2448                           	callstack 0
  2449                           
  2450 ;; *************** function _buf_pop *****************
  2451 ;; Defined at:
  2452 ;;		line 121 in file "main.c"
  2453 ;; Parameters:    Size  Location     Type
  2454 ;;  buf             1    wreg     enum E4993
  2455 ;; Auto vars:     Size  Location     Type
  2456 ;;  buf             1    6[COMRAM] enum E4993
  2457 ;;  v               1    5[COMRAM] unsigned char 
  2458 ;; Return value:  Size  Location     Type
  2459 ;;                  1    wreg      unsigned char 
  2460 ;; Registers used:
  2461 ;;		wreg, fsr1l, fsr1h, fsr2l, fsr2h, status,2, status,0, cstack
  2462 ;; Tracked objects:
  2463 ;;		On entry : 0/0
  2464 ;;		On exit  : 0/0
  2465 ;;		Unchanged: 0/0
  2466 ;; Data sizes:     COMRAM   BANK0   BANK1   BANK2   BANK3   BANK4   BANK5   BANK6   BANK7   BANK8   BANK9  BANK10  BANK1
      +1  BANK12  BANK13  BANK14  BANK15
  2467 ;;      Params:         0       0       0       0       0       0       0       0       0       0       0       0       
      +0       0       0       0       0
  2468 ;;      Locals:         0       0       0       0       0       0       0       0       0       0       0       0       
      +0       0       0       0       0
  2469 ;;      Temps:          0       0       0       0       0       0       0       0       0       0       0       0       
      +0       0       0       0       0
  2470 ;;      Totals:         0       0       0       0       0       0       0       0       0       0       0       0       
      +0       0       0       0       0
  2471 ;;Total ram usage:        0 bytes
  2472 ;; Hardware stack levels used: 1
  2473 ;; Hardware stack levels required when called: 6
  2474 ;; This function calls:
  2475 ;;		_buf_isempty
  2476 ;; This function is called by:
  2477 ;;		_transmit_isr
  2478 ;;		_parse
  2479 ;; This function uses a non-reentrant model
  2480 ;;
  2481                           
  2482                           	psect	text25
  2483   00165A                     __ptext25:
  2484                           	callstack 0
  2485   00165A                     _buf_pop:
  2486                           	callstack 18
  2487                           
  2488                           ;incstack = 0
  2489                           ;buf_pop@buf stored from wreg
  2490   00165A  6E2A               	movwf	buf_pop@buf^0,c
  2491                           
  2492                           ;main.c: 122: ;main.c: 123: 
  2493   00165C  502A               	movf	buf_pop@buf^0,w,c
  2494   00165E  ECA8  F00C         	call	_buf_isempty
  2495   001662  0900               	iorlw	0
  2496   001664  B4D8               	btfsc	status,2,c
  2497   001666  D002               	goto	i2l1773
  2498                           
  2499                           ;main.c: 124:     if (altitude_period == 0)
  2500   001668  0EFF               	movlw	255
  2501   00166A  0012               	return	
  2502   00166C                     i2l1773:
  2503                           
  2504                           ;main.c: 126: }
  2505   00166C  502A               	movf	buf_pop@buf^0,w,c
  2506   00166E  A4D8               	btfss	status,2,c
  2507   001670  D00C               	goto	i2l1777
  2508   001672  502A               	movf	buf_pop@buf^0,w,c
  2509   001674  0F10               	addlw	low _tail
  2510   001676  6ED9               	movwf	fsr2l,c
  2511   001678  6ADA               	clrf	fsr2h,c
  2512   00167A  50DF               	movf	indf2,w,c
  2513   00167C  6E27               	movwf	??_buf_pop^0,c
  2514   00167E  6A28               	clrf	(??_buf_pop+1)^0,c
  2515   001680  0E00               	movlw	low _inbuf
  2516   001682  2427               	addwf	??_buf_pop^0,w,c
  2517   001684  6ED9               	movwf	fsr2l,c
  2518   001686  0E01               	movlw	high _inbuf
  2519   001688  D00B               	goto	L7
  2520   00168A                     i2l1777:
  2521   00168A  502A               	movf	buf_pop@buf^0,w,c
  2522   00168C  0F10               	addlw	low _tail
  2523   00168E  6ED9               	movwf	fsr2l,c
  2524   001690  6ADA               	clrf	fsr2h,c
  2525   001692  50DF               	movf	indf2,w,c
  2526   001694  6E27               	movwf	??_buf_pop^0,c
  2527   001696  6A28               	clrf	(??_buf_pop+1)^0,c
  2528   001698  0E00               	movlw	low _outbuf
  2529   00169A  2427               	addwf	??_buf_pop^0,w,c
  2530   00169C  6ED9               	movwf	fsr2l,c
  2531   00169E  0E02               	movlw	high _outbuf
  2532   0016A0                     L7:
  2533   0016A0  2028               	addwfc	(??_buf_pop+1)^0,w,c
  2534   0016A2  6EDA               	movwf	fsr2h,c
  2535   0016A4  50DF               	movf	indf2,w,c
  2536   0016A6  6E29               	movwf	buf_pop@v^0,c
  2537                           
  2538                           ;main.c: 128: void adc_isr() {
  2539   0016A8  502A               	movf	buf_pop@buf^0,w,c
  2540   0016AA  0F10               	addlw	low _tail
  2541   0016AC  6ED9               	movwf	fsr2l,c
  2542   0016AE  6ADA               	clrf	fsr2h,c
  2543   0016B0  2ADF               	incf	indf2,f,c
  2544                           
  2545                           ;main.c: 129: 
  2546   0016B2  502A               	movf	buf_pop@buf^0,w,c
  2547   0016B4  0F10               	addlw	low _tail
  2548   0016B6  6ED9               	movwf	fsr2l,c
  2549   0016B8  6ADA               	clrf	fsr2h,c
  2550   0016BA  28DE               	incf	postinc2,w,c
  2551   0016BC  A4D8               	btfss	status,2,c
  2552   0016BE  D005               	goto	i2l1781
  2553   0016C0  502A               	movf	buf_pop@buf^0,w,c
  2554   0016C2  0F10               	addlw	low _tail
  2555   0016C4  6ED9               	movwf	fsr2l,c
  2556   0016C6  6ADA               	clrf	fsr2h,c
  2557   0016C8  6ADF               	clrf	indf2,c
  2558   0016CA                     i2l1781:
  2559                           
  2560                           ;main.c: 130:     adc = (ADRESH << 8) | (ADRESH & 0xF);
  2561   0016CA  5029               	movf	buf_pop@v^0,w,c
  2562   0016CC  0012               	return		;funcret
  2563   0016CE                     __end_of_buf_pop:
  2564                           	callstack 0
  2565                           
  2566 ;; *************** function _buf_isempty *****************
  2567 ;; Defined at:
  2568 ;;		line 105 in file "main.c"
  2569 ;; Parameters:    Size  Location     Type
  2570 ;;  buf             1    wreg     enum E4993
  2571 ;; Auto vars:     Size  Location     Type
  2572 ;;  buf             1    2[COMRAM] enum E4993
  2573 ;; Return value:  Size  Location     Type
  2574 ;;                  1    wreg      unsigned char 
  2575 ;; Registers used:
  2576 ;;		wreg, fsr1l, fsr1h, fsr2l, fsr2h, status,2, status,0
  2577 ;; Tracked objects:
  2578 ;;		On entry : 0/0
  2579 ;;		On exit  : 0/0
  2580 ;;		Unchanged: 0/0
  2581 ;; Data sizes:     COMRAM   BANK0   BANK1   BANK2   BANK3   BANK4   BANK5   BANK6   BANK7   BANK8   BANK9  BANK10  BANK1
      +1  BANK12  BANK13  BANK14  BANK15
  2582 ;;      Params:         0       0       0       0       0       0       0       0       0       0       0       0       
      +0       0       0       0       0
  2583 ;;      Locals:         0       0       0       0       0       0       0       0       0       0       0       0       
      +0       0       0       0       0
  2584 ;;      Temps:          0       0       0       0       0       0       0       0       0       0       0       0       
      +0       0       0       0       0
  2585 ;;      Totals:         0       0       0       0       0       0       0       0       0       0       0       0       
      +0       0       0       0       0
  2586 ;;Total ram usage:        0 bytes
  2587 ;; Hardware stack levels used: 1
  2588 ;; Hardware stack levels required when called: 5
  2589 ;; This function calls:
  2590 ;;		Nothing
  2591 ;; This function is called by:
  2592 ;;		_buf_pop
  2593 ;;		_transmit_isr
  2594 ;;		_parse
  2595 ;; This function uses a non-reentrant model
  2596 ;;
  2597                           
  2598                           	psect	text26
  2599   001950                     __ptext26:
  2600                           	callstack 0
  2601   001950                     _buf_isempty:
  2602                           	callstack 18
  2603                           
  2604                           ;incstack = 0
  2605                           ;buf_isempty@buf stored from wreg
  2606   001950  6E26               	movwf	buf_isempty@buf^0,c
  2607                           
  2608                           ;main.c: 106:         send_button_press(4);
  2609   001952  5026               	movf	buf_isempty@buf^0,w,c
  2610   001954  0F10               	addlw	low _tail
  2611   001956  6ED9               	movwf	fsr2l,c
  2612   001958  6ADA               	clrf	fsr2h,c
  2613   00195A  5026               	movf	buf_isempty@buf^0,w,c
  2614   00195C  0F12               	addlw	low _head
  2615   00195E  6EE1               	movwf	fsr1l,c
  2616   001960  6AE2               	clrf	fsr1h,c
  2617   001962  50DE               	movf	postinc2,w,c
  2618   001964  18E6               	xorwf	postinc1,w,c
  2619   001966  A4D8               	btfss	status,2,c
  2620   001968  D002               	goto	i2u92_40
  2621   00196A  0E01               	movlw	1
  2622   00196C  0012               	return	
  2623   00196E                     i2u92_40:
  2624   00196E  0E00               	movlw	0
  2625   001970  0012               	return		;funcret
  2626   001972                     __end_of_buf_isempty:
  2627                           	callstack 0
  2628                           
  2629 ;; *************** function _timer_isr *****************
  2630 ;; Defined at:
  2631 ;;		line 204 in file "main.c"
  2632 ;; Parameters:    Size  Location     Type
  2633 ;;		None
  2634 ;; Auto vars:     Size  Location     Type
  2635 ;;		None
  2636 ;; Return value:  Size  Location     Type
  2637 ;;                  1    wreg      void 
  2638 ;; Registers used:
  2639 ;;		wreg, fsr2l, fsr2h, status,2, status,0, cstack
  2640 ;; Tracked objects:
  2641 ;;		On entry : 0/0
  2642 ;;		On exit  : 0/0
  2643 ;;		Unchanged: 0/0
  2644 ;; Data sizes:     COMRAM   BANK0   BANK1   BANK2   BANK3   BANK4   BANK5   BANK6   BANK7   BANK8   BANK9  BANK10  BANK1
      +1  BANK12  BANK13  BANK14  BANK15
  2645 ;;      Params:         0       0       0       0       0       0       0       0       0       0       0       0       
      +0       0       0       0       0
  2646 ;;      Locals:         0       0       0       0       0       0       0       0       0       0       0       0       
      +0       0       0       0       0
  2647 ;;      Temps:          0       0       0       0       0       0       0       0       0       0       0       0       
      +0       0       0       0       0
  2648 ;;      Totals:         0       0       0       0       0       0       0       0       0       0       0       0       
      +0       0       0       0       0
  2649 ;;Total ram usage:        0 bytes
  2650 ;; Hardware stack levels used: 1
  2651 ;; Hardware stack levels required when called: 2
  2652 ;; This function calls:
  2653 ;;		_send_altitude
  2654 ;;		_send_button_press
  2655 ;;		_send_distance
  2656 ;; This function is called by:
  2657 ;;		_highPriorityISR
  2658 ;; This function uses a non-reentrant model
  2659 ;;
  2660                           
  2661                           	psect	text27
  2662   001410                     __ptext27:
  2663                           	callstack 0
  2664   001410                     _timer_isr:
  2665                           	callstack 23
  2666                           
  2667                           ;main.c: 205:     PIE1bits.TXIE = 1;
  2668                           
  2669                           ;incstack = 0
  2670   001410  94F2               	bcf	242,2,c	;volatile
  2671                           
  2672                           ;main.c: 206:     PIE1bits.RCIE = 1;
  2673   001412  0E0B               	movlw	11
  2674   001414  6ED7               	movwf	215,c	;volatile
  2675                           
  2676                           ;main.c: 207:     RCSTAbits.CREN = 1;
  2677   001416  0EDE               	movlw	222
  2678   001418  6ED6               	movwf	214,c	;volatile
  2679                           
  2680                           ;main.c: 210: 
  2681   00141A  5016               	movf	_speed^0,w,c
  2682   00141C  5C1A               	subwf	_dist^0,w,c
  2683   00141E  5017               	movf	(_speed+1)^0,w,c
  2684   001420  581B               	subwfb	(_dist+1)^0,w,c
  2685   001422  A0D8               	btfss	status,0,c
  2686   001424  D005               	goto	i2l1971
  2687                           
  2688                           ;main.c: 211: void init_interrupts() {
  2689   001426  5016               	movf	_speed^0,w,c
  2690   001428  5E1A               	subwf	_dist^0,f,c
  2691   00142A  5017               	movf	(_speed+1)^0,w,c
  2692   00142C  5A1B               	subwfb	(_dist+1)^0,f,c
  2693   00142E  D004               	goto	i2l1973
  2694   001430                     i2l1971:
  2695                           
  2696                           ;main.c: 213:     INTCONbits.PEIE = 1;
  2697   001430  0E00               	movlw	0
  2698   001432  6E1B               	movwf	(_dist+1)^0,c
  2699   001434  0E00               	movlw	0
  2700   001436  6E1A               	movwf	_dist^0,c
  2701   001438                     i2l1973:
  2702                           
  2703                           ;main.c: 216:     PIE1bits.RC1IE = 1;
  2704   001438  2A22               	incf	_counter^0,f,c
  2705                           
  2706                           ;main.c: 223:     INTCONbits.RBIE = 1;
  2707   00143A  5023               	movf	_altitude_period^0,w,c
  2708   00143C  B4D8               	btfsc	status,2,c
  2709   00143E  D00D               	goto	i2l1983
  2710   001440  5023               	movf	_altitude_period^0,w,c
  2711   001442  1822               	xorwf	_counter^0,w,c
  2712   001444  A4D8               	btfss	status,2,c
  2713   001446  D009               	goto	i2l1983
  2714                           
  2715                           ;main.c: 224: 
  2716   001448  C018  F028         	movff	_adc,send_altitude@adc_value
  2717   00144C  C019  F029         	movff	_adc+1,send_altitude@adc_value+1
  2718   001450  EC28  F009         	call	_send_altitude	;wreg free
  2719                           
  2720                           ;main.c: 225: 
  2721   001454  0E00               	movlw	0
  2722   001456  6E22               	movwf	_counter^0,c
  2723                           
  2724                           ;main.c: 226:     enable_interrupts();
  2725   001458  D02A               	goto	i2l2009
  2726   00145A                     i2l1983:
  2727   00145A  5001               	movf	_portb_send^0,w,c
  2728   00145C  B4D8               	btfsc	status,2,c
  2729   00145E  D006               	goto	i2l1989
  2730                           
  2731                           ;main.c: 227: }
  2732   001460  0E04               	movlw	4
  2733   001462  ECF1  F00A         	call	_send_button_press
  2734                           
  2735                           ;main.c: 228: 
  2736   001466  0E00               	movlw	0
  2737   001468  6E01               	movwf	_portb_send^0,c
  2738                           
  2739                           ;main.c: 229: 
  2740   00146A  D021               	goto	i2l2009
  2741   00146C                     i2l1989:
  2742   00146C  5002               	movf	(_portb_send+1)^0,w,c
  2743   00146E  B4D8               	btfsc	status,2,c
  2744   001470  D006               	goto	i2l1995
  2745                           
  2746                           ;main.c: 230: void init_adc() {
  2747   001472  0E05               	movlw	5
  2748   001474  ECF1  F00A         	call	_send_button_press
  2749                           
  2750                           ;main.c: 231:     ADCON0 = 0x31;
  2751   001478  0E00               	movlw	0
  2752   00147A  6E02               	movwf	(_portb_send+1)^0,c
  2753                           
  2754                           ;main.c: 232:     ADCON1 = 0x00;
  2755   00147C  D018               	goto	i2l2009
  2756   00147E                     i2l1995:
  2757   00147E  5003               	movf	(_portb_send+2)^0,w,c
  2758   001480  B4D8               	btfsc	status,2,c
  2759   001482  D006               	goto	i2l2001
  2760                           
  2761                           ;main.c: 233:     ADCON2 = 0xAA;
  2762   001484  0E06               	movlw	6
  2763   001486  ECF1  F00A         	call	_send_button_press
  2764                           
  2765                           ;main.c: 234:     ADRESH = 0x00;
  2766   00148A  0E00               	movlw	0
  2767   00148C  6E03               	movwf	(_portb_send+2)^0,c
  2768                           
  2769                           ;main.c: 235:     ADRESL = 0x00;
  2770   00148E  D00F               	goto	i2l2009
  2771   001490                     i2l2001:
  2772   001490  5004               	movf	(_portb_send+3)^0,w,c
  2773   001492  B4D8               	btfsc	status,2,c
  2774   001494  D006               	goto	i2l2007
  2775                           
  2776                           ;main.c: 236: }
  2777   001496  0E07               	movlw	7
  2778   001498  ECF1  F00A         	call	_send_button_press
  2779                           
  2780                           ;main.c: 237: 
  2781   00149C  0E00               	movlw	0
  2782   00149E  6E04               	movwf	(_portb_send+3)^0,c
  2783                           
  2784                           ;main.c: 238: 
  2785   0014A0  D006               	goto	i2l2009
  2786   0014A2                     i2l2007:
  2787                           
  2788                           ;main.c: 239: void init_timer() {
  2789   0014A2  C01A  F028         	movff	_dist,send_distance@distance
  2790   0014A6  C01B  F029         	movff	_dist+1,send_distance@distance+1
  2791   0014AA  EC9D  F009         	call	_send_distance	;wreg free
  2792   0014AE                     i2l2009:
  2793                           
  2794                           ;main.c: 245:     TMR0L = 222;
  2795   0014AE  5023               	movf	_altitude_period^0,w,c
  2796   0014B0  A4D8               	btfss	status,2,c
  2797   0014B2  0012               	return	
  2798                           
  2799                           ;main.c: 246: }
  2800   0014B4  0E00               	movlw	0
  2801   0014B6  6E22               	movwf	_counter^0,c
  2802   0014B8  0012               	return		;funcret
  2803   0014BA                     __end_of_timer_isr:
  2804                           	callstack 0
  2805                           
  2806 ;; *************** function _send_distance *****************
  2807 ;; Defined at:
  2808 ;;		line 482 in file "main.c"
  2809 ;; Parameters:    Size  Location     Type
  2810 ;;  distance        2    4[COMRAM] unsigned short 
  2811 ;; Auto vars:     Size  Location     Type
  2812 ;;  hex             1   10[COMRAM] unsigned char 
  2813 ;;  nibble3         1    9[COMRAM] unsigned char 
  2814 ;;  nibble2         1    8[COMRAM] unsigned char 
  2815 ;;  nibble1         1    7[COMRAM] unsigned char 
  2816 ;;  nibble0         1    6[COMRAM] unsigned char 
  2817 ;; Return value:  Size  Location     Type
  2818 ;;                  1    wreg      void 
  2819 ;; Registers used:
  2820 ;;		wreg, fsr2l, fsr2h, status,2, status,0, cstack
  2821 ;; Tracked objects:
  2822 ;;		On entry : 0/0
  2823 ;;		On exit  : 0/0
  2824 ;;		Unchanged: 0/0
  2825 ;; Data sizes:     COMRAM   BANK0   BANK1   BANK2   BANK3   BANK4   BANK5   BANK6   BANK7   BANK8   BANK9  BANK10  BANK1
      +1  BANK12  BANK13  BANK14  BANK15
  2826 ;;      Params:         2       0       0       0       0       0       0       0       0       0       0       0       
      +0       0       0       0       0
  2827 ;;      Locals:         5       0       0       0       0       0       0       0       0       0       0       0       
      +0       0       0       0       0
  2828 ;;      Temps:          0       0       0       0       0       0       0       0       0       0       0       0       
      +0       0       0       0       0
  2829 ;;      Totals:         7       0       0       0       0       0       0       0       0       0       0       0       
      +0       0       0       0       0
  2830 ;;Total ram usage:        7 bytes
  2831 ;; Hardware stack levels used: 1
  2832 ;; Hardware stack levels required when called: 1
  2833 ;; This function calls:
  2834 ;;		_buf_push
  2835 ;;		_send
  2836 ;;		_to_hex
  2837 ;;		i2_disable_interrupts
  2838 ;;		i2_enable_interrupts
  2839 ;; This function is called by:
  2840 ;;		_timer_isr
  2841 ;; This function uses a non-reentrant model
  2842 ;;
  2843                           
  2844                           	psect	text28
  2845   00133A                     __ptext28:
  2846                           	callstack 0
  2847   00133A                     _send_distance:
  2848                           	callstack 23
  2849                           
  2850                           ;main.c: 484:     buf_push(hex, OUTBUF);
  2851                           
  2852                           ;incstack = 0
  2853   00133A  5028               	movf	send_distance@distance^0,w,c
  2854   00133C  0B0F               	andlw	15
  2855   00133E  6E2A               	movwf	send_distance@nibble0^0,c
  2856                           
  2857                           ;main.c: 485: 
  2858   001340  3A28               	swapf	send_distance@distance^0,f,c
  2859   001342  3A29               	swapf	(send_distance@distance+1)^0,f,c
  2860   001344  0E0F               	movlw	15
  2861   001346  1628               	andwf	send_distance@distance^0,f,c
  2862   001348  5029               	movf	(send_distance@distance+1)^0,w,c
  2863   00134A  0BF0               	andlw	240
  2864   00134C  1228               	iorwf	send_distance@distance^0,f,c
  2865   00134E  0E0F               	movlw	15
  2866   001350  1629               	andwf	(send_distance@distance+1)^0,f,c
  2867                           
  2868                           ;main.c: 486:     buf_push('#', OUTBUF);
  2869   001352  5028               	movf	send_distance@distance^0,w,c
  2870   001354  0B0F               	andlw	15
  2871   001356  6E2B               	movwf	send_distance@nibble1^0,c
  2872                           
  2873                           ;main.c: 487: 
  2874   001358  3A28               	swapf	send_distance@distance^0,f,c
  2875   00135A  3A29               	swapf	(send_distance@distance+1)^0,f,c
  2876   00135C  0E0F               	movlw	15
  2877   00135E  1628               	andwf	send_distance@distance^0,f,c
  2878   001360  5029               	movf	(send_distance@distance+1)^0,w,c
  2879   001362  0BF0               	andlw	240
  2880   001364  1228               	iorwf	send_distance@distance^0,f,c
  2881   001366  0E0F               	movlw	15
  2882   001368  1629               	andwf	(send_distance@distance+1)^0,f,c
  2883                           
  2884                           ;main.c: 488: 
  2885   00136A  5028               	movf	send_distance@distance^0,w,c
  2886   00136C  0B0F               	andlw	15
  2887   00136E  6E2C               	movwf	send_distance@nibble2^0,c
  2888                           
  2889                           ;main.c: 489:     enable_interrupts();
  2890   001370  3A28               	swapf	send_distance@distance^0,f,c
  2891   001372  3A29               	swapf	(send_distance@distance+1)^0,f,c
  2892   001374  0E0F               	movlw	15
  2893   001376  1628               	andwf	send_distance@distance^0,f,c
  2894   001378  5029               	movf	(send_distance@distance+1)^0,w,c
  2895   00137A  0BF0               	andlw	240
  2896   00137C  1228               	iorwf	send_distance@distance^0,f,c
  2897   00137E  0E0F               	movlw	15
  2898   001380  1629               	andwf	(send_distance@distance+1)^0,f,c
  2899                           
  2900                           ;main.c: 490: 
  2901   001382  5028               	movf	send_distance@distance^0,w,c
  2902   001384  0B0F               	andlw	15
  2903   001386  6E2D               	movwf	send_distance@nibble3^0,c
  2904                           
  2905                           ;main.c: 494: 
  2906   001388  EC57  F00D         	call	i2_disable_interrupts	;wreg free
  2907                           
  2908                           ;main.c: 497: void parse() {
  2909   00138C  0E01               	movlw	1
  2910   00138E  6E24               	movwf	buf_push@buf^0,c
  2911   001390  0E24               	movlw	36
  2912   001392  EC9E  F00B         	call	_buf_push
  2913                           
  2914                           ;main.c: 498: 
  2915   001396  0E01               	movlw	1
  2916   001398  6E24               	movwf	buf_push@buf^0,c
  2917   00139A  0E44               	movlw	68
  2918   00139C  EC9E  F00B         	call	_buf_push
  2919                           
  2920                           ;main.c: 499: 
  2921   0013A0  0E01               	movlw	1
  2922   0013A2  6E24               	movwf	buf_push@buf^0,c
  2923   0013A4  0E53               	movlw	83
  2924   0013A6  EC9E  F00B         	call	_buf_push
  2925                           
  2926                           ;main.c: 500:     disable_interrupts();
  2927   0013AA  0E01               	movlw	1
  2928   0013AC  6E24               	movwf	buf_push@buf^0,c
  2929   0013AE  0E54               	movlw	84
  2930   0013B0  EC9E  F00B         	call	_buf_push
  2931                           
  2932                           ;main.c: 503:         char value = buf_pop(INBUF);;main.c: 504: 
  2933   0013B4  502D               	movf	send_distance@nibble3^0,w,c
  2934   0013B6  EC0D  F00D         	call	_to_hex
  2935   0013BA  6E2E               	movwf	send_distance@hex^0,c
  2936                           
  2937                           ;main.c: 505: 
  2938   0013BC  0E01               	movlw	1
  2939   0013BE  6E24               	movwf	buf_push@buf^0,c
  2940   0013C0  502E               	movf	send_distance@hex^0,w,c
  2941   0013C2  EC9E  F00B         	call	_buf_push
  2942                           
  2943                           ;main.c: 506: 
  2944   0013C6  502C               	movf	send_distance@nibble2^0,w,c
  2945   0013C8  EC0D  F00D         	call	_to_hex
  2946   0013CC  6E2E               	movwf	send_distance@hex^0,c
  2947                           
  2948                           ;main.c: 507:         enable_interrupts();
  2949   0013CE  0E01               	movlw	1
  2950   0013D0  6E24               	movwf	buf_push@buf^0,c
  2951   0013D2  502E               	movf	send_distance@hex^0,w,c
  2952   0013D4  EC9E  F00B         	call	_buf_push
  2953                           
  2954                           ;main.c: 508: 
  2955   0013D8  502B               	movf	send_distance@nibble1^0,w,c
  2956   0013DA  EC0D  F00D         	call	_to_hex
  2957   0013DE  6E2E               	movwf	send_distance@hex^0,c
  2958                           
  2959                           ;main.c: 509: 
  2960   0013E0  0E01               	movlw	1
  2961   0013E2  6E24               	movwf	buf_push@buf^0,c
  2962   0013E4  502E               	movf	send_distance@hex^0,w,c
  2963   0013E6  EC9E  F00B         	call	_buf_push
  2964                           
  2965                           ;main.c: 510:         switch (parse_state) {
  2966   0013EA  502A               	movf	send_distance@nibble0^0,w,c
  2967   0013EC  EC0D  F00D         	call	_to_hex
  2968   0013F0  6E2E               	movwf	send_distance@hex^0,c
  2969                           
  2970                           ;main.c: 511: 
  2971   0013F2  0E01               	movlw	1
  2972   0013F4  6E24               	movwf	buf_push@buf^0,c
  2973   0013F6  502E               	movf	send_distance@hex^0,w,c
  2974   0013F8  EC9E  F00B         	call	_buf_push
  2975                           
  2976                           ;main.c: 513:             case PARSE_IDLE:
  2977   0013FC  0E01               	movlw	1
  2978   0013FE  6E24               	movwf	buf_push@buf^0,c
  2979   001400  0E23               	movlw	35
  2980   001402  EC9E  F00B         	call	_buf_push
  2981                           
  2982                           ;main.c: 516:                 }
  2983   001406  EC55  F00D         	call	i2_enable_interrupts	;wreg free
  2984                           
  2985                           ;main.c: 519: 
  2986   00140A  EC59  F00D         	call	_send	;wreg free
  2987   00140E  0012               	return		;funcret
  2988   001410                     __end_of_send_distance:
  2989                           	callstack 0
  2990                           
  2991 ;; *************** function _send_button_press *****************
  2992 ;; Defined at:
  2993 ;;		line 584 in file "main.c"
  2994 ;; Parameters:    Size  Location     Type
  2995 ;;  button          1    wreg     unsigned char 
  2996 ;; Auto vars:     Size  Location     Type
  2997 ;;  button          1    6[COMRAM] unsigned char 
  2998 ;;  hex             1    7[COMRAM] unsigned char 
  2999 ;;  nibble1         1    5[COMRAM] unsigned char 
  3000 ;;  nibble0         1    4[COMRAM] unsigned char 
  3001 ;; Return value:  Size  Location     Type
  3002 ;;                  1    wreg      void 
  3003 ;; Registers used:
  3004 ;;		wreg, fsr2l, fsr2h, status,2, status,0, cstack
  3005 ;; Tracked objects:
  3006 ;;		On entry : 0/0
  3007 ;;		On exit  : 0/0
  3008 ;;		Unchanged: 0/0
  3009 ;; Data sizes:     COMRAM   BANK0   BANK1   BANK2   BANK3   BANK4   BANK5   BANK6   BANK7   BANK8   BANK9  BANK10  BANK1
      +1  BANK12  BANK13  BANK14  BANK15
  3010 ;;      Params:         0       0       0       0       0       0       0       0       0       0       0       0       
      +0       0       0       0       0
  3011 ;;      Locals:         4       0       0       0       0       0       0       0       0       0       0       0       
      +0       0       0       0       0
  3012 ;;      Temps:          0       0       0       0       0       0       0       0       0       0       0       0       
      +0       0       0       0       0
  3013 ;;      Totals:         4       0       0       0       0       0       0       0       0       0       0       0       
      +0       0       0       0       0
  3014 ;;Total ram usage:        4 bytes
  3015 ;; Hardware stack levels used: 1
  3016 ;; Hardware stack levels required when called: 1
  3017 ;; This function calls:
  3018 ;;		_buf_push
  3019 ;;		_send
  3020 ;;		_to_hex
  3021 ;;		i2_disable_interrupts
  3022 ;;		i2_enable_interrupts
  3023 ;; This function is called by:
  3024 ;;		_timer_isr
  3025 ;; This function uses a non-reentrant model
  3026 ;;
  3027                           
  3028                           	psect	text29
  3029   0015E2                     __ptext29:
  3030                           	callstack 0
  3031   0015E2                     _send_button_press:
  3032                           	callstack 23
  3033                           
  3034                           ;incstack = 0
  3035                           ;send_button_press@button stored from wreg
  3036   0015E2  6E2A               	movwf	send_button_press@button^0,c
  3037                           
  3038                           ;main.c: 586:                     parsed_digit_count += 1;
  3039   0015E4  502A               	movf	send_button_press@button^0,w,c
  3040   0015E6  0B0F               	andlw	15
  3041   0015E8  6E28               	movwf	send_button_press@nibble0^0,c
  3042                           
  3043                           ;main.c: 587:                 }
  3044   0015EA  3A2A               	swapf	send_button_press@button^0,f,c
  3045   0015EC  0E0F               	movlw	15
  3046   0015EE  162A               	andwf	send_button_press@button^0,f,c
  3047                           
  3048                           ;main.c: 588:                 else {
  3049   0015F0  502A               	movf	send_button_press@button^0,w,c
  3050   0015F2  0B0F               	andlw	15
  3051   0015F4  6E29               	movwf	send_button_press@nibble1^0,c
  3052                           
  3053                           ;main.c: 592:                         switch (message_type) {
  3054   0015F6  EC57  F00D         	call	i2_disable_interrupts	;wreg free
  3055                           
  3056                           ;main.c: 595:                                 break;
  3057   0015FA  0E01               	movlw	1
  3058   0015FC  6E24               	movwf	buf_push@buf^0,c
  3059   0015FE  0E24               	movlw	36
  3060   001600  EC9E  F00B         	call	_buf_push
  3061                           
  3062                           ;main.c: 596:                             case MT_END:
  3063   001604  0E01               	movlw	1
  3064   001606  6E24               	movwf	buf_push@buf^0,c
  3065   001608  0E50               	movlw	80
  3066   00160A  EC9E  F00B         	call	_buf_push
  3067                           
  3068                           ;main.c: 597:                                 get_end();
  3069   00160E  0E01               	movlw	1
  3070   001610  6E24               	movwf	buf_push@buf^0,c
  3071   001612  0E52               	movlw	82
  3072   001614  EC9E  F00B         	call	_buf_push
  3073                           
  3074                           ;main.c: 598:                                 break;
  3075   001618  0E01               	movlw	1
  3076   00161A  6E24               	movwf	buf_push@buf^0,c
  3077   00161C  0E53               	movlw	83
  3078   00161E  EC9E  F00B         	call	_buf_push
  3079                           
  3080                           ;main.c: 601:                                 break;;main.c: 602:                       
      +                                case MT_ALTITUDE:
  3081   001622  5029               	movf	send_button_press@nibble1^0,w,c
  3082   001624  EC0D  F00D         	call	_to_hex
  3083   001628  6E2B               	movwf	send_button_press@hex^0,c
  3084                           
  3085                           ;main.c: 603:                                 get_altitude(parsed_number);
  3086   00162A  0E01               	movlw	1
  3087   00162C  6E24               	movwf	buf_push@buf^0,c
  3088   00162E  502B               	movf	send_button_press@hex^0,w,c
  3089   001630  EC9E  F00B         	call	_buf_push
  3090                           
  3091                           ;main.c: 604:                                 break;
  3092   001634  5028               	movf	send_button_press@nibble0^0,w,c
  3093   001636  EC0D  F00D         	call	_to_hex
  3094   00163A  6E2B               	movwf	send_button_press@hex^0,c
  3095                           
  3096                           ;main.c: 605:                             case MT_MANUAL:
  3097   00163C  0E01               	movlw	1
  3098   00163E  6E24               	movwf	buf_push@buf^0,c
  3099   001640  502B               	movf	send_button_press@hex^0,w,c
  3100   001642  EC9E  F00B         	call	_buf_push
  3101                           
  3102                           ;main.c: 607:                                 break;
  3103   001646  0E01               	movlw	1
  3104   001648  6E24               	movwf	buf_push@buf^0,c
  3105   00164A  0E23               	movlw	35
  3106   00164C  EC9E  F00B         	call	_buf_push
  3107                           
  3108                           ;main.c: 610:                                 break;
  3109   001650  EC55  F00D         	call	i2_enable_interrupts	;wreg free
  3110                           
  3111                           ;main.c: 613: 
  3112   001654  EC59  F00D         	call	_send	;wreg free
  3113   001658  0012               	return		;funcret
  3114   00165A                     __end_of_send_button_press:
  3115                           	callstack 0
  3116                           
  3117 ;; *************** function _send_altitude *****************
  3118 ;; Defined at:
  3119 ;;		line 539 in file "main.c"
  3120 ;; Parameters:    Size  Location     Type
  3121 ;;  adc_value       2    4[COMRAM] unsigned short 
  3122 ;; Auto vars:     Size  Location     Type
  3123 ;;  alt             2   10[COMRAM] unsigned short 
  3124 ;;  hex             1   12[COMRAM] unsigned char 
  3125 ;;  nibble3         1    9[COMRAM] unsigned char 
  3126 ;;  nibble2         1    8[COMRAM] unsigned char 
  3127 ;;  nibble1         1    7[COMRAM] unsigned char 
  3128 ;;  nibble0         1    6[COMRAM] unsigned char 
  3129 ;; Return value:  Size  Location     Type
  3130 ;;                  1    wreg      void 
  3131 ;; Registers used:
  3132 ;;		wreg, fsr2l, fsr2h, status,2, status,0, cstack
  3133 ;; Tracked objects:
  3134 ;;		On entry : 0/0
  3135 ;;		On exit  : 0/0
  3136 ;;		Unchanged: 0/0
  3137 ;; Data sizes:     COMRAM   BANK0   BANK1   BANK2   BANK3   BANK4   BANK5   BANK6   BANK7   BANK8   BANK9  BANK10  BANK1
      +1  BANK12  BANK13  BANK14  BANK15
  3138 ;;      Params:         2       0       0       0       0       0       0       0       0       0       0       0       
      +0       0       0       0       0
  3139 ;;      Locals:         7       0       0       0       0       0       0       0       0       0       0       0       
      +0       0       0       0       0
  3140 ;;      Temps:          0       0       0       0       0       0       0       0       0       0       0       0       
      +0       0       0       0       0
  3141 ;;      Totals:         9       0       0       0       0       0       0       0       0       0       0       0       
      +0       0       0       0       0
  3142 ;;Total ram usage:        9 bytes
  3143 ;; Hardware stack levels used: 1
  3144 ;; Hardware stack levels required when called: 1
  3145 ;; This function calls:
  3146 ;;		_adc_to_alt
  3147 ;;		_buf_push
  3148 ;;		_send
  3149 ;;		_to_hex
  3150 ;;		i2_disable_interrupts
  3151 ;;		i2_enable_interrupts
  3152 ;; This function is called by:
  3153 ;;		_timer_isr
  3154 ;; This function uses a non-reentrant model
  3155 ;;
  3156                           
  3157                           	psect	text30
  3158   001250                     __ptext30:
  3159                           	callstack 0
  3160   001250                     _send_altitude:
  3161                           	callstack 23
  3162                           
  3163                           ;main.c: 541:                     } else if (message_name[0] == 'L' && message_name[1] =
      +                          = 'E' && message_name[2] == 'D') {
  3164                           
  3165                           ;incstack = 0
  3166   001250  C028  F024         	movff	send_altitude@adc_value,adc_to_alt@value
  3167   001254  C029  F025         	movff	send_altitude@adc_value+1,adc_to_alt@value+1
  3168   001258  EC58  F00C         	call	_adc_to_alt	;wreg free
  3169   00125C  C024  F02E         	movff	?_adc_to_alt,send_altitude@alt
  3170   001260  C025  F02F         	movff	?_adc_to_alt+1,send_altitude@alt+1
  3171                           
  3172                           ;main.c: 544:                     } else {
  3173   001264  502E               	movf	send_altitude@alt^0,w,c
  3174   001266  0B0F               	andlw	15
  3175   001268  6E2A               	movwf	send_altitude@nibble0^0,c
  3176                           
  3177                           ;main.c: 545:                         parse_state = PARSE_IDLE;
  3178   00126A  3A2E               	swapf	send_altitude@alt^0,f,c
  3179   00126C  3A2F               	swapf	(send_altitude@alt+1)^0,f,c
  3180   00126E  0E0F               	movlw	15
  3181   001270  162E               	andwf	send_altitude@alt^0,f,c
  3182   001272  502F               	movf	(send_altitude@alt+1)^0,w,c
  3183   001274  0BF0               	andlw	240
  3184   001276  122E               	iorwf	send_altitude@alt^0,f,c
  3185   001278  0E0F               	movlw	15
  3186   00127A  162F               	andwf	(send_altitude@alt+1)^0,f,c
  3187                           
  3188                           ;main.c: 546:                         break;
  3189   00127C  502E               	movf	send_altitude@alt^0,w,c
  3190   00127E  0B0F               	andlw	15
  3191   001280  6E2B               	movwf	send_altitude@nibble1^0,c
  3192                           
  3193                           ;main.c: 547:                     }
  3194   001282  3A2E               	swapf	send_altitude@alt^0,f,c
  3195   001284  3A2F               	swapf	(send_altitude@alt+1)^0,f,c
  3196   001286  0E0F               	movlw	15
  3197   001288  162E               	andwf	send_altitude@alt^0,f,c
  3198   00128A  502F               	movf	(send_altitude@alt+1)^0,w,c
  3199   00128C  0BF0               	andlw	240
  3200   00128E  122E               	iorwf	send_altitude@alt^0,f,c
  3201   001290  0E0F               	movlw	15
  3202   001292  162F               	andwf	(send_altitude@alt+1)^0,f,c
  3203                           
  3204                           ;main.c: 548: 
  3205   001294  502E               	movf	send_altitude@alt^0,w,c
  3206   001296  0B0F               	andlw	15
  3207   001298  6E2C               	movwf	send_altitude@nibble2^0,c
  3208                           
  3209                           ;main.c: 549: 
  3210   00129A  3A2E               	swapf	send_altitude@alt^0,f,c
  3211   00129C  3A2F               	swapf	(send_altitude@alt+1)^0,f,c
  3212   00129E  0E0F               	movlw	15
  3213   0012A0  162E               	andwf	send_altitude@alt^0,f,c
  3214   0012A2  502F               	movf	(send_altitude@alt+1)^0,w,c
  3215   0012A4  0BF0               	andlw	240
  3216   0012A6  122E               	iorwf	send_altitude@alt^0,f,c
  3217   0012A8  0E0F               	movlw	15
  3218   0012AA  162F               	andwf	(send_altitude@alt+1)^0,f,c
  3219                           
  3220                           ;main.c: 550:                     parse_state = PARSE_BODY;
  3221   0012AC  502E               	movf	send_altitude@alt^0,w,c
  3222   0012AE  0B0F               	andlw	15
  3223   0012B0  6E2D               	movwf	send_altitude@nibble3^0,c
  3224                           
  3225                           ;main.c: 554:                     parsed_digit_count = 0;
  3226   0012B2  EC57  F00D         	call	i2_disable_interrupts	;wreg free
  3227                           
  3228                           ;main.c: 557: 
  3229   0012B6  0E01               	movlw	1
  3230   0012B8  6E24               	movwf	buf_push@buf^0,c
  3231   0012BA  0E24               	movlw	36
  3232   0012BC  EC9E  F00B         	call	_buf_push
  3233                           
  3234                           ;main.c: 558: 
  3235   0012C0  0E01               	movlw	1
  3236   0012C2  6E24               	movwf	buf_push@buf^0,c
  3237   0012C4  0E41               	movlw	65
  3238   0012C6  EC9E  F00B         	call	_buf_push
  3239                           
  3240                           ;main.c: 559: 
  3241   0012CA  0E01               	movlw	1
  3242   0012CC  6E24               	movwf	buf_push@buf^0,c
  3243   0012CE  0E4C               	movlw	76
  3244   0012D0  EC9E  F00B         	call	_buf_push
  3245                           
  3246                           ;main.c: 560: 
  3247   0012D4  0E01               	movlw	1
  3248   0012D6  6E24               	movwf	buf_push@buf^0,c
  3249   0012D8  0E54               	movlw	84
  3250   0012DA  EC9E  F00B         	call	_buf_push
  3251                           
  3252                           ;main.c: 563:                 _Bool is_digit = (('0' <= value && value <= '9') || ('A' <
      +                          = value && value <= 'F') || ('a' <= value && value <= 'f'));;main.c: 564:               
      +                            _Bool is_end = value == '#';
  3253   0012DE  502D               	movf	send_altitude@nibble3^0,w,c
  3254   0012E0  EC0D  F00D         	call	_to_hex
  3255   0012E4  6E30               	movwf	send_altitude@hex^0,c
  3256                           
  3257                           ;main.c: 565: 
  3258   0012E6  0E01               	movlw	1
  3259   0012E8  6E24               	movwf	buf_push@buf^0,c
  3260   0012EA  5030               	movf	send_altitude@hex^0,w,c
  3261   0012EC  EC9E  F00B         	call	_buf_push
  3262                           
  3263                           ;main.c: 566: 
  3264   0012F0  502C               	movf	send_altitude@nibble2^0,w,c
  3265   0012F2  EC0D  F00D         	call	_to_hex
  3266   0012F6  6E30               	movwf	send_altitude@hex^0,c
  3267                           
  3268                           ;main.c: 567:                 if (!(is_digit || is_end)) {
  3269   0012F8  0E01               	movlw	1
  3270   0012FA  6E24               	movwf	buf_push@buf^0,c
  3271   0012FC  5030               	movf	send_altitude@hex^0,w,c
  3272   0012FE  EC9E  F00B         	call	_buf_push
  3273                           
  3274                           ;main.c: 568:                     parse_state = PARSE_IDLE;
  3275   001302  502B               	movf	send_altitude@nibble1^0,w,c
  3276   001304  EC0D  F00D         	call	_to_hex
  3277   001308  6E30               	movwf	send_altitude@hex^0,c
  3278                           
  3279                           ;main.c: 569:                     break;
  3280   00130A  0E01               	movlw	1
  3281   00130C  6E24               	movwf	buf_push@buf^0,c
  3282   00130E  5030               	movf	send_altitude@hex^0,w,c
  3283   001310  EC9E  F00B         	call	_buf_push
  3284                           
  3285                           ;main.c: 570:                 }
  3286   001314  502A               	movf	send_altitude@nibble0^0,w,c
  3287   001316  EC0D  F00D         	call	_to_hex
  3288   00131A  6E30               	movwf	send_altitude@hex^0,c
  3289                           
  3290                           ;main.c: 571: 
  3291   00131C  0E01               	movlw	1
  3292   00131E  6E24               	movwf	buf_push@buf^0,c
  3293   001320  5030               	movf	send_altitude@hex^0,w,c
  3294   001322  EC9E  F00B         	call	_buf_push
  3295                           
  3296                           ;main.c: 573:                 if (is_digit) {
  3297   001326  0E01               	movlw	1
  3298   001328  6E24               	movwf	buf_push@buf^0,c
  3299   00132A  0E23               	movlw	35
  3300   00132C  EC9E  F00B         	call	_buf_push
  3301                           
  3302                           ;main.c: 576:                     if (parsed_digit_count == digit_count_to_be_parsed) {
  3303   001330  EC55  F00D         	call	i2_enable_interrupts	;wreg free
  3304                           
  3305                           ;main.c: 579:                     }
  3306   001334  EC59  F00D         	call	_send	;wreg free
  3307   001338  0012               	return		;funcret
  3308   00133A                     __end_of_send_altitude:
  3309                           	callstack 0
  3310                           
  3311 ;; *************** function i2_enable_interrupts *****************
  3312 ;; Defined at:
  3313 ;;		line 68 in file "main.c"
  3314 ;; Parameters:    Size  Location     Type
  3315 ;;		None
  3316 ;; Auto vars:     Size  Location     Type
  3317 ;;		None
  3318 ;; Return value:  Size  Location     Type
  3319 ;;                  1    wreg      void 
  3320 ;; Registers used:
  3321 ;;		None
  3322 ;; Tracked objects:
  3323 ;;		On entry : 0/0
  3324 ;;		On exit  : 0/0
  3325 ;;		Unchanged: 0/0
  3326 ;; Data sizes:     COMRAM   BANK0   BANK1   BANK2   BANK3   BANK4   BANK5   BANK6   BANK7   BANK8   BANK9  BANK10  BANK1
      +1  BANK12  BANK13  BANK14  BANK15
  3327 ;;      Params:         0       0       0       0       0       0       0       0       0       0       0       0       
      +0       0       0       0       0
  3328 ;;      Locals:         0       0       0       0       0       0       0       0       0       0       0       0       
      +0       0       0       0       0
  3329 ;;      Temps:          0       0       0       0       0       0       0       0       0       0       0       0       
      +0       0       0       0       0
  3330 ;;      Totals:         0       0       0       0       0       0       0       0       0       0       0       0       
      +0       0       0       0       0
  3331 ;;Total ram usage:        0 bytes
  3332 ;; Hardware stack levels used: 1
  3333 ;; This function calls:
  3334 ;;		Nothing
  3335 ;; This function is called by:
  3336 ;;		_send_distance
  3337 ;;		_send_altitude
  3338 ;;		_send_button_press
  3339 ;; This function uses a non-reentrant model
  3340 ;;
  3341                           
  3342                           	psect	text31
  3343   001AAA                     __ptext31:
  3344                           	callstack 0
  3345   001AAA                     i2_enable_interrupts:
  3346                           	callstack 23
  3347                           
  3348                           ;main.c: 69:     INTCONbits.GIE = 1;;main.c: 69:     PIR1bits.RC1IF = 0;
  3349                           
  3350                           ;incstack = 0
  3351   001AAA  8EF2               	bsf	242,7,c	;volatile
  3352   001AAC  0012               	return		;funcret
  3353   001AAE                     __end_ofi2_enable_interrupts:
  3354                           	callstack 0
  3355                           
  3356 ;; *************** function i2_disable_interrupts *****************
  3357 ;; Defined at:
  3358 ;;		line 62 in file "main.c"
  3359 ;; Parameters:    Size  Location     Type
  3360 ;;		None
  3361 ;; Auto vars:     Size  Location     Type
  3362 ;;		None
  3363 ;; Return value:  Size  Location     Type
  3364 ;;                  1    wreg      void 
  3365 ;; Registers used:
  3366 ;;		None
  3367 ;; Tracked objects:
  3368 ;;		On entry : 0/0
  3369 ;;		On exit  : 0/0
  3370 ;;		Unchanged: 0/0
  3371 ;; Data sizes:     COMRAM   BANK0   BANK1   BANK2   BANK3   BANK4   BANK5   BANK6   BANK7   BANK8   BANK9  BANK10  BANK1
      +1  BANK12  BANK13  BANK14  BANK15
  3372 ;;      Params:         0       0       0       0       0       0       0       0       0       0       0       0       
      +0       0       0       0       0
  3373 ;;      Locals:         0       0       0       0       0       0       0       0       0       0       0       0       
      +0       0       0       0       0
  3374 ;;      Temps:          0       0       0       0       0       0       0       0       0       0       0       0       
      +0       0       0       0       0
  3375 ;;      Totals:         0       0       0       0       0       0       0       0       0       0       0       0       
      +0       0       0       0       0
  3376 ;;Total ram usage:        0 bytes
  3377 ;; Hardware stack levels used: 1
  3378 ;; This function calls:
  3379 ;;		Nothing
  3380 ;; This function is called by:
  3381 ;;		_send_distance
  3382 ;;		_send_altitude
  3383 ;;		_send_button_press
  3384 ;; This function uses a non-reentrant model
  3385 ;;
  3386                           
  3387                           	psect	text32
  3388   001AAE                     __ptext32:
  3389                           	callstack 0
  3390   001AAE                     i2_disable_interrupts:
  3391                           	callstack 23
  3392                           
  3393                           ;main.c: 63:     INTCONbits.GIE = 0;;main.c: 63: 
  3394                           
  3395                           ;incstack = 0
  3396   001AAE  9EF2               	bcf	242,7,c	;volatile
  3397   001AB0  0012               	return		;funcret
  3398   001AB2                     __end_ofi2_disable_interrupts:
  3399                           	callstack 0
  3400                           
  3401 ;; *************** function _to_hex *****************
  3402 ;; Defined at:
  3403 ;;		line 454 in file "main.c"
  3404 ;; Parameters:    Size  Location     Type
  3405 ;;  nibble          1    wreg     unsigned char 
  3406 ;; Auto vars:     Size  Location     Type
  3407 ;;  nibble          1    0[COMRAM] unsigned char 
  3408 ;; Return value:  Size  Location     Type
  3409 ;;                  1    wreg      unsigned char 
  3410 ;; Registers used:
  3411 ;;		wreg, status,2, status,0
  3412 ;; Tracked objects:
  3413 ;;		On entry : 0/0
  3414 ;;		On exit  : 0/0
  3415 ;;		Unchanged: 0/0
  3416 ;; Data sizes:     COMRAM   BANK0   BANK1   BANK2   BANK3   BANK4   BANK5   BANK6   BANK7   BANK8   BANK9  BANK10  BANK1
      +1  BANK12  BANK13  BANK14  BANK15
  3417 ;;      Params:         0       0       0       0       0       0       0       0       0       0       0       0       
      +0       0       0       0       0
  3418 ;;      Locals:         1       0       0       0       0       0       0       0       0       0       0       0       
      +0       0       0       0       0
  3419 ;;      Temps:          0       0       0       0       0       0       0       0       0       0       0       0       
      +0       0       0       0       0
  3420 ;;      Totals:         1       0       0       0       0       0       0       0       0       0       0       0       
      +0       0       0       0       0
  3421 ;;Total ram usage:        1 bytes
  3422 ;; Hardware stack levels used: 1
  3423 ;; This function calls:
  3424 ;;		Nothing
  3425 ;; This function is called by:
  3426 ;;		_send_distance
  3427 ;;		_send_altitude
  3428 ;;		_send_button_press
  3429 ;; This function uses a non-reentrant model
  3430 ;;
  3431                           
  3432                           	psect	text33
  3433   001A1A                     __ptext33:
  3434                           	callstack 0
  3435   001A1A                     _to_hex:
  3436                           	callstack 23
  3437                           
  3438                           ;incstack = 0
  3439                           ;to_hex@nibble stored from wreg
  3440   001A1A  6E24               	movwf	to_hex@nibble^0,c
  3441                           
  3442                           ;main.c: 455:     enable_interrupts();
  3443   001A1C  0E0A               	movlw	10
  3444   001A1E  6024               	cpfslt	to_hex@nibble^0,c
  3445   001A20  D003               	goto	i2l1103
  3446                           
  3447                           ;main.c: 456: 
  3448   001A22  5024               	movf	to_hex@nibble^0,w,c
  3449   001A24  0F30               	addlw	48
  3450   001A26  0012               	return	
  3451   001A28                     i2l1103:
  3452                           
  3453                           ;main.c: 458:     send();
  3454   001A28  5024               	movf	to_hex@nibble^0,w,c
  3455   001A2A  0F37               	addlw	55
  3456   001A2C  0012               	return		;funcret
  3457   001A2E                     __end_of_to_hex:
  3458                           	callstack 0
  3459                           
  3460 ;; *************** function _send *****************
  3461 ;; Defined at:
  3462 ;;		line 476 in file "main.c"
  3463 ;; Parameters:    Size  Location     Type
  3464 ;;		None
  3465 ;; Auto vars:     Size  Location     Type
  3466 ;;		None
  3467 ;; Return value:  Size  Location     Type
  3468 ;;                  1    wreg      void 
  3469 ;; Registers used:
  3470 ;;		None
  3471 ;; Tracked objects:
  3472 ;;		On entry : 0/0
  3473 ;;		On exit  : 0/0
  3474 ;;		Unchanged: 0/0
  3475 ;; Data sizes:     COMRAM   BANK0   BANK1   BANK2   BANK3   BANK4   BANK5   BANK6   BANK7   BANK8   BANK9  BANK10  BANK1
      +1  BANK12  BANK13  BANK14  BANK15
  3476 ;;      Params:         0       0       0       0       0       0       0       0       0       0       0       0       
      +0       0       0       0       0
  3477 ;;      Locals:         0       0       0       0       0       0       0       0       0       0       0       0       
      +0       0       0       0       0
  3478 ;;      Temps:          0       0       0       0       0       0       0       0       0       0       0       0       
      +0       0       0       0       0
  3479 ;;      Totals:         0       0       0       0       0       0       0       0       0       0       0       0       
      +0       0       0       0       0
  3480 ;;Total ram usage:        0 bytes
  3481 ;; Hardware stack levels used: 1
  3482 ;; This function calls:
  3483 ;;		Nothing
  3484 ;; This function is called by:
  3485 ;;		_send_distance
  3486 ;;		_send_altitude
  3487 ;;		_send_button_press
  3488 ;; This function uses a non-reentrant model
  3489 ;;
  3490                           
  3491                           	psect	text34
  3492   001AB2                     __ptext34:
  3493                           	callstack 0
  3494   001AB2                     _send:
  3495                           	callstack 23
  3496                           
  3497                           ;main.c: 477:     buf_push('S', OUTBUF);
  3498                           
  3499                           ;incstack = 0
  3500   001AB2  8AAC               	bsf	172,5,c	;volatile
  3501   001AB4  0012               	return		;funcret
  3502   001AB6                     __end_of_send:
  3503                           	callstack 0
  3504                           
  3505 ;; *************** function _adc_to_alt *****************
  3506 ;; Defined at:
  3507 ;;		line 525 in file "main.c"
  3508 ;; Parameters:    Size  Location     Type
  3509 ;;  value           2    0[COMRAM] unsigned short 
  3510 ;; Auto vars:     Size  Location     Type
  3511 ;;		None
  3512 ;; Return value:  Size  Location     Type
  3513 ;;                  2    0[COMRAM] unsigned short 
  3514 ;; Registers used:
  3515 ;;		wreg, status,2, status,0
  3516 ;; Tracked objects:
  3517 ;;		On entry : 0/0
  3518 ;;		On exit  : 0/0
  3519 ;;		Unchanged: 0/0
  3520 ;; Data sizes:     COMRAM   BANK0   BANK1   BANK2   BANK3   BANK4   BANK5   BANK6   BANK7   BANK8   BANK9  BANK10  BANK1
      +1  BANK12  BANK13  BANK14  BANK15
  3521 ;;      Params:         2       0       0       0       0       0       0       0       0       0       0       0       
      +0       0       0       0       0
  3522 ;;      Locals:         0       0       0       0       0       0       0       0       0       0       0       0       
      +0       0       0       0       0
  3523 ;;      Temps:          0       0       0       0       0       0       0       0       0       0       0       0       
      +0       0       0       0       0
  3524 ;;      Totals:         2       0       0       0       0       0       0       0       0       0       0       0       
      +0       0       0       0       0
  3525 ;;Total ram usage:        2 bytes
  3526 ;; Hardware stack levels used: 1
  3527 ;; This function calls:
  3528 ;;		Nothing
  3529 ;; This function is called by:
  3530 ;;		_send_altitude
  3531 ;; This function uses a non-reentrant model
  3532 ;;
  3533                           
  3534                           	psect	text35
  3535   0018B0                     __ptext35:
  3536                           	callstack 0
  3537   0018B0                     _adc_to_alt:
  3538                           	callstack 23
  3539                           
  3540                           ;main.c: 526:                     if (message_name[0] == 'G' && message_name[1] == 'O' &
      +                          & message_name[2] == 'O') {
  3541                           
  3542                           ;incstack = 0
  3543   0018B0  0425               	decf	(adc_to_alt@value+1)^0,w,c
  3544   0018B2  B0D8               	btfsc	status,0,c
  3545   0018B4  D005               	goto	i2l1719
  3546                           
  3547                           ;main.c: 527:                         message_type = MT_GO;
  3548   0018B6  0E23               	movlw	35
  3549   0018B8  6E25               	movwf	(?_adc_to_alt+1)^0,c
  3550   0018BA  0E28               	movlw	40
  3551   0018BC  6E24               	movwf	?_adc_to_alt^0,c
  3552   0018BE  0012               	return	
  3553   0018C0                     i2l1719:
  3554   0018C0  0E02               	movlw	2
  3555   0018C2  5C25               	subwf	(adc_to_alt@value+1)^0,w,c
  3556   0018C4  B0D8               	btfsc	status,0,c
  3557   0018C6  D005               	goto	i2l1727
  3558                           
  3559                           ;main.c: 529:                     } else if (message_name[0] == 'E' && message_name[1] =
      +                          = 'N' && message_name[2] == 'D') {
  3560   0018C8  0E27               	movlw	39
  3561   0018CA  6E25               	movwf	(?_adc_to_alt+1)^0,c
  3562   0018CC  0E10               	movlw	16
  3563   0018CE  6E24               	movwf	?_adc_to_alt^0,c
  3564   0018D0  0012               	return	
  3565   0018D2                     i2l1727:
  3566   0018D2  0E03               	movlw	3
  3567   0018D4  5C25               	subwf	(adc_to_alt@value+1)^0,w,c
  3568   0018D6  B0D8               	btfsc	status,0,c
  3569   0018D8  D005               	goto	i2l1735
  3570                           
  3571                           ;main.c: 531:                         digit_count_to_be_parsed = 0;
  3572   0018DA  0E2A               	movlw	42
  3573   0018DC  6E25               	movwf	(?_adc_to_alt+1)^0,c
  3574   0018DE  0EF8               	movlw	248
  3575   0018E0  6E24               	movwf	?_adc_to_alt^0,c
  3576   0018E2  0012               	return	
  3577   0018E4                     i2l1735:
  3578                           
  3579                           ;main.c: 533:                         message_type = MT_SPEED;
  3580   0018E4  0E2E               	movlw	46
  3581   0018E6  6E25               	movwf	(?_adc_to_alt+1)^0,c
  3582   0018E8  0EE0               	movlw	224
  3583   0018EA  6E24               	movwf	?_adc_to_alt^0,c
  3584   0018EC  0012               	return		;funcret
  3585   0018EE                     __end_of_adc_to_alt:
  3586                           	callstack 0
  3587                           
  3588 ;; *************** function _receive_isr *****************
  3589 ;; Defined at:
  3590 ;;		line 179 in file "main.c"
  3591 ;; Parameters:    Size  Location     Type
  3592 ;;		None
  3593 ;; Auto vars:     Size  Location     Type
  3594 ;;		None
  3595 ;; Return value:  Size  Location     Type
  3596 ;;                  1    wreg      void 
  3597 ;; Registers used:
  3598 ;;		wreg, fsr2l, fsr2h, status,2, status,0, cstack
  3599 ;; Tracked objects:
  3600 ;;		On entry : 0/0
  3601 ;;		On exit  : 0/0
  3602 ;;		Unchanged: 0/0
  3603 ;; Data sizes:     COMRAM   BANK0   BANK1   BANK2   BANK3   BANK4   BANK5   BANK6   BANK7   BANK8   BANK9  BANK10  BANK1
      +1  BANK12  BANK13  BANK14  BANK15
  3604 ;;      Params:         0       0       0       0       0       0       0       0       0       0       0       0       
      +0       0       0       0       0
  3605 ;;      Locals:         0       0       0       0       0       0       0       0       0       0       0       0       
      +0       0       0       0       0
  3606 ;;      Temps:          0       0       0       0       0       0       0       0       0       0       0       0       
      +0       0       0       0       0
  3607 ;;      Totals:         0       0       0       0       0       0       0       0       0       0       0       0       
      +0       0       0       0       0
  3608 ;;Total ram usage:        0 bytes
  3609 ;; Hardware stack levels used: 1
  3610 ;; Hardware stack levels required when called: 1
  3611 ;; This function calls:
  3612 ;;		_buf_push
  3613 ;; This function is called by:
  3614 ;;		_highPriorityISR
  3615 ;; This function uses a non-reentrant model
  3616 ;;
  3617                           
  3618                           	psect	text36
  3619   001A2E                     __ptext36:
  3620                           	callstack 0
  3621   001A2E                     _receive_isr:
  3622                           	callstack 24
  3623                           
  3624                           ;main.c: 181:     PORTA = 0;
  3625                           
  3626                           ;incstack = 0
  3627   001A2E  92AB               	bcf	171,1,c	;volatile
  3628                           
  3629                           ;main.c: 182:     PORTB = 0;
  3630   001A30  94AB               	bcf	171,2,c	;volatile
  3631                           
  3632                           ;main.c: 185:     PORTH = 0;
  3633   001A32  88AB               	bsf	171,4,c	;volatile
  3634                           
  3635                           ;main.c: 188:     LATC = 0;
  3636   001A34  0E00               	movlw	0
  3637   001A36  6E24               	movwf	buf_push@buf^0,c
  3638   001A38  50AE               	movf	174,w,c	;volatile
  3639   001A3A  EC9E  F00B         	call	_buf_push
  3640                           
  3641                           ;main.c: 190:     LATH = 0;
  3642   001A3E  9A9E               	bcf	158,5,c	;volatile
  3643   001A40  0012               	return		;funcret
  3644   001A42                     __end_of_receive_isr:
  3645                           	callstack 0
  3646                           
  3647 ;; *************** function _buf_push *****************
  3648 ;; Defined at:
  3649 ;;		line 111 in file "main.c"
  3650 ;; Parameters:    Size  Location     Type
  3651 ;;  v               1    wreg     unsigned char 
  3652 ;;  buf             1    0[COMRAM] enum E4993
  3653 ;; Auto vars:     Size  Location     Type
  3654 ;;  v               1    3[COMRAM] unsigned char 
  3655 ;; Return value:  Size  Location     Type
  3656 ;;                  1    wreg      void 
  3657 ;; Registers used:
  3658 ;;		wreg, fsr2l, fsr2h, status,2, status,0
  3659 ;; Tracked objects:
  3660 ;;		On entry : 0/0
  3661 ;;		On exit  : 0/0
  3662 ;;		Unchanged: 0/0
  3663 ;; Data sizes:     COMRAM   BANK0   BANK1   BANK2   BANK3   BANK4   BANK5   BANK6   BANK7   BANK8   BANK9  BANK10  BANK1
      +1  BANK12  BANK13  BANK14  BANK15
  3664 ;;      Params:         1       0       0       0       0       0       0       0       0       0       0       0       
      +0       0       0       0       0
  3665 ;;      Locals:         1       0       0       0       0       0       0       0       0       0       0       0       
      +0       0       0       0       0
  3666 ;;      Temps:          2       0       0       0       0       0       0       0       0       0       0       0       
      +0       0       0       0       0
  3667 ;;      Totals:         4       0       0       0       0       0       0       0       0       0       0       0       
      +0       0       0       0       0
  3668 ;;Total ram usage:        4 bytes
  3669 ;; Hardware stack levels used: 1
  3670 ;; This function calls:
  3671 ;;		Nothing
  3672 ;; This function is called by:
  3673 ;;		_receive_isr
  3674 ;;		_send_distance
  3675 ;;		_send_altitude
  3676 ;;		_send_button_press
  3677 ;; This function uses a non-reentrant model
  3678 ;;
  3679                           
  3680                           	psect	text37
  3681   00173C                     __ptext37:
  3682                           	callstack 0
  3683   00173C                     _buf_push:
  3684                           	callstack 23
  3685                           
  3686                           ;incstack = 0
  3687                           ;buf_push@v stored from wreg
  3688   00173C  6E27               	movwf	buf_push@v^0,c
  3689                           
  3690                           ;main.c: 112:         send_button_press(6);
  3691   00173E  5024               	movf	buf_push@buf^0,w,c
  3692   001740  A4D8               	btfss	status,2,c
  3693   001742  D00C               	goto	i2l1707
  3694   001744  5024               	movf	buf_push@buf^0,w,c
  3695   001746  0F12               	addlw	low _head
  3696   001748  6ED9               	movwf	fsr2l,c
  3697   00174A  6ADA               	clrf	fsr2h,c
  3698   00174C  50DF               	movf	indf2,w,c
  3699   00174E  6E25               	movwf	??_buf_push^0,c
  3700   001750  6A26               	clrf	(??_buf_push+1)^0,c
  3701   001752  0E00               	movlw	low _inbuf
  3702   001754  2425               	addwf	??_buf_push^0,w,c
  3703   001756  6ED9               	movwf	fsr2l,c
  3704   001758  0E01               	movlw	high _inbuf
  3705   00175A  D00B               	goto	L8
  3706   00175C                     i2l1707:
  3707   00175C  5024               	movf	buf_push@buf^0,w,c
  3708   00175E  0F12               	addlw	low _head
  3709   001760  6ED9               	movwf	fsr2l,c
  3710   001762  6ADA               	clrf	fsr2h,c
  3711   001764  50DF               	movf	indf2,w,c
  3712   001766  6E25               	movwf	??_buf_push^0,c
  3713   001768  6A26               	clrf	(??_buf_push+1)^0,c
  3714   00176A  0E00               	movlw	low _outbuf
  3715   00176C  2425               	addwf	??_buf_push^0,w,c
  3716   00176E  6ED9               	movwf	fsr2l,c
  3717   001770  0E02               	movlw	high _outbuf
  3718   001772                     L8:
  3719   001772  2026               	addwfc	(??_buf_push+1)^0,w,c
  3720   001774  6EDA               	movwf	fsr2h,c
  3721   001776  C027  FFDF         	movff	buf_push@v,indf2
  3722                           
  3723                           ;main.c: 114:     } else if (portb_send[3]) {
  3724   00177A  5024               	movf	buf_push@buf^0,w,c
  3725   00177C  0F12               	addlw	low _head
  3726   00177E  6ED9               	movwf	fsr2l,c
  3727   001780  6ADA               	clrf	fsr2h,c
  3728   001782  2ADF               	incf	indf2,f,c
  3729                           
  3730                           ;main.c: 115:         send_button_press(7);
  3731   001784  5024               	movf	buf_push@buf^0,w,c
  3732   001786  0F12               	addlw	low _head
  3733   001788  6ED9               	movwf	fsr2l,c
  3734   00178A  6ADA               	clrf	fsr2h,c
  3735   00178C  28DE               	incf	postinc2,w,c
  3736   00178E  A4D8               	btfss	status,2,c
  3737   001790  0012               	return	
  3738   001792  5024               	movf	buf_push@buf^0,w,c
  3739   001794  0F12               	addlw	low _head
  3740   001796  6ED9               	movwf	fsr2l,c
  3741   001798  6ADA               	clrf	fsr2h,c
  3742   00179A  6ADF               	clrf	indf2,c
  3743   00179C  0012               	return		;funcret
  3744   00179E                     __end_of_buf_push:
  3745                           	callstack 0
  3746                           
  3747 ;; *************** function _portb_isr *****************
  3748 ;; Defined at:
  3749 ;;		line 139 in file "main.c"
  3750 ;; Parameters:    Size  Location     Type
  3751 ;;		None
  3752 ;; Auto vars:     Size  Location     Type
  3753 ;;  current         4    1[COMRAM] _Bool [4]
  3754 ;; Return value:  Size  Location     Type
  3755 ;;                  1    wreg      void 
  3756 ;; Registers used:
  3757 ;;		wreg, status,2
  3758 ;; Tracked objects:
  3759 ;;		On entry : 0/0
  3760 ;;		On exit  : 0/0
  3761 ;;		Unchanged: 0/0
  3762 ;; Data sizes:     COMRAM   BANK0   BANK1   BANK2   BANK3   BANK4   BANK5   BANK6   BANK7   BANK8   BANK9  BANK10  BANK1
      +1  BANK12  BANK13  BANK14  BANK15
  3763 ;;      Params:         0       0       0       0       0       0       0       0       0       0       0       0       
      +0       0       0       0       0
  3764 ;;      Locals:         4       0       0       0       0       0       0       0       0       0       0       0       
      +0       0       0       0       0
  3765 ;;      Temps:          1       0       0       0       0       0       0       0       0       0       0       0       
      +0       0       0       0       0
  3766 ;;      Totals:         5       0       0       0       0       0       0       0       0       0       0       0       
      +0       0       0       0       0
  3767 ;;Total ram usage:        5 bytes
  3768 ;; Hardware stack levels used: 1
  3769 ;; This function calls:
  3770 ;;		Nothing
  3771 ;; This function is called by:
  3772 ;;		_highPriorityISR
  3773 ;; This function uses a non-reentrant model
  3774 ;;
  3775                           
  3776                           	psect	text38
  3777   0014BA                     __ptext38:
  3778                           	callstack 0
  3779   0014BA                     _portb_isr:
  3780                           	callstack 25
  3781                           
  3782                           ;main.c: 142: }
  3783                           
  3784                           ;incstack = 0
  3785   0014BA  0E0D               	movlw	13
  3786   0014BC  6E24               	movwf	??_portb_isr^0,c
  3787   0014BE  0EFC               	movlw	252
  3788   0014C0                     i2u165_47:
  3789   0014C0  2EE8               	decfsz	wreg,f,c
  3790   0014C2  D7FE               	bra	i2u165_47
  3791   0014C4  2E24               	decfsz	??_portb_isr^0,f,c
  3792   0014C6  D7FC               	bra	i2u165_47
  3793                           
  3794                           ;main.c: 146: };main.c: 148: 
  3795   0014C8  A881               	btfss	129,4,c	;volatile
  3796   0014CA  D002               	goto	i2u24_40
  3797   0014CC  0E01               	movlw	1
  3798   0014CE  D001               	goto	i2u24_46
  3799   0014D0                     i2u24_40:
  3800   0014D0  0E00               	movlw	0
  3801   0014D2                     i2u24_46:
  3802   0014D2  6E25               	movwf	portb_isr@current^0,c
  3803                           
  3804                           ;main.c: 149: 
  3805   0014D4  AA81               	btfss	129,5,c	;volatile
  3806   0014D6  D002               	goto	i2u25_40
  3807   0014D8  0E01               	movlw	1
  3808   0014DA  D001               	goto	i2u25_46
  3809   0014DC                     i2u25_40:
  3810   0014DC  0E00               	movlw	0
  3811   0014DE                     i2u25_46:
  3812   0014DE  6E26               	movwf	(portb_isr@current+1)^0,c
  3813                           
  3814                           ;main.c: 150: 
  3815   0014E0  AC81               	btfss	129,6,c	;volatile
  3816   0014E2  D002               	goto	i2u26_40
  3817   0014E4  0E01               	movlw	1
  3818   0014E6  D001               	goto	i2u26_46
  3819   0014E8                     i2u26_40:
  3820   0014E8  0E00               	movlw	0
  3821   0014EA                     i2u26_46:
  3822   0014EA  6E27               	movwf	(portb_isr@current+2)^0,c
  3823                           
  3824                           ;main.c: 151: void init_vars() {
  3825   0014EC  AE81               	btfss	129,7,c	;volatile
  3826   0014EE  D002               	goto	i2u27_40
  3827   0014F0  0E01               	movlw	1
  3828   0014F2  D001               	goto	i2u27_46
  3829   0014F4                     i2u27_40:
  3830   0014F4  0E00               	movlw	0
  3831   0014F6                     i2u27_46:
  3832   0014F6  6E28               	movwf	(portb_isr@current+3)^0,c
  3833                           
  3834                           ;main.c: 156:     counter = 0;
  3835   0014F8  5005               	movf	_portb_enable^0,w,c
  3836   0014FA  B4D8               	btfsc	status,2,c
  3837   0014FC  D008               	goto	i2l160
  3838   0014FE  5025               	movf	portb_isr@current^0,w,c
  3839   001500  A4D8               	btfss	status,2,c
  3840   001502  D005               	goto	i2l160
  3841   001504  5009               	movf	_portb_prev^0,w,c
  3842   001506  B4D8               	btfsc	status,2,c
  3843   001508  D002               	goto	i2l160
  3844                           
  3845                           ;main.c: 157:     speed = 0;
  3846   00150A  0E01               	movlw	1
  3847   00150C  6E01               	movwf	_portb_send^0,c
  3848   00150E                     i2l160:
  3849                           
  3850                           ;main.c: 159:     message_pos = 0;
  3851   00150E  5006               	movf	(_portb_enable+1)^0,w,c
  3852   001510  B4D8               	btfsc	status,2,c
  3853   001512  D008               	goto	i2l161
  3854   001514  5026               	movf	(portb_isr@current+1)^0,w,c
  3855   001516  A4D8               	btfss	status,2,c
  3856   001518  D005               	goto	i2l161
  3857   00151A  500A               	movf	(_portb_prev+1)^0,w,c
  3858   00151C  B4D8               	btfsc	status,2,c
  3859   00151E  D002               	goto	i2l161
  3860                           
  3861                           ;main.c: 160:     parsed_number = 0;
  3862   001520  0E01               	movlw	1
  3863   001522  6E02               	movwf	(_portb_send+1)^0,c
  3864   001524                     i2l161:
  3865                           
  3866                           ;main.c: 162:     parsed_digit_count = 0;
  3867   001524  5007               	movf	(_portb_enable+2)^0,w,c
  3868   001526  B4D8               	btfsc	status,2,c
  3869   001528  D008               	goto	i2l162
  3870   00152A  5027               	movf	(portb_isr@current+2)^0,w,c
  3871   00152C  A4D8               	btfss	status,2,c
  3872   00152E  D005               	goto	i2l162
  3873   001530  500B               	movf	(_portb_prev+2)^0,w,c
  3874   001532  B4D8               	btfsc	status,2,c
  3875   001534  D002               	goto	i2l162
  3876                           
  3877                           ;main.c: 163:     portb_prev[0] = portb_prev[1] = portb_prev[2] = portb_prev[3] = 0;
  3878   001536  0E01               	movlw	1
  3879   001538  6E03               	movwf	(_portb_send+2)^0,c
  3880   00153A                     i2l162:
  3881                           
  3882                           ;main.c: 165:     portb_send[0] = portb_send[1] = portb_send[2] = portb_send[3] = 0;
  3883   00153A  5008               	movf	(_portb_enable+3)^0,w,c
  3884   00153C  B4D8               	btfsc	status,2,c
  3885   00153E  D008               	goto	i2l1391
  3886   001540  5028               	movf	(portb_isr@current+3)^0,w,c
  3887   001542  A4D8               	btfss	status,2,c
  3888   001544  D005               	goto	i2l1391
  3889   001546  500C               	movf	(_portb_prev+3)^0,w,c
  3890   001548  B4D8               	btfsc	status,2,c
  3891   00154A  D002               	goto	i2l1391
  3892                           
  3893                           ;main.c: 166: 
  3894   00154C  0E01               	movlw	1
  3895   00154E  6E04               	movwf	(_portb_send+3)^0,c
  3896   001550                     i2l1391:
  3897                           
  3898                           ;main.c: 171: }
  3899   001550  C025  F009         	movff	portb_isr@current,_portb_prev
  3900                           
  3901                           ;main.c: 172: 
  3902   001554  C026  F00A         	movff	portb_isr@current+1,_portb_prev+1
  3903                           
  3904                           ;main.c: 173: 
  3905   001558  C027  F00B         	movff	portb_isr@current+2,_portb_prev+2
  3906                           
  3907                           ;main.c: 174: void init_ports() {
  3908   00155C  C028  F00C         	movff	portb_isr@current+3,_portb_prev+3
  3909                           
  3910                           ;main.c: 176:     TRISB = 0b11111110;
  3911   001560  90F2               	bcf	242,0,c	;volatile
  3912   001562  0012               	return		;funcret
  3913   001564                     __end_of_portb_isr:
  3914                           	callstack 0
  3915                           
  3916 ;; *************** function _adc_isr *****************
  3917 ;; Defined at:
  3918 ;;		line 249 in file "main.c"
  3919 ;; Parameters:    Size  Location     Type
  3920 ;;		None
  3921 ;; Auto vars:     Size  Location     Type
  3922 ;;		None
  3923 ;; Return value:  Size  Location     Type
  3924 ;;                  1    wreg      void 
  3925 ;; Registers used:
  3926 ;;		wreg, status,2, status,0
  3927 ;; Tracked objects:
  3928 ;;		On entry : 0/0
  3929 ;;		On exit  : 0/0
  3930 ;;		Unchanged: 0/0
  3931 ;; Data sizes:     COMRAM   BANK0   BANK1   BANK2   BANK3   BANK4   BANK5   BANK6   BANK7   BANK8   BANK9  BANK10  BANK1
      +1  BANK12  BANK13  BANK14  BANK15
  3932 ;;      Params:         0       0       0       0       0       0       0       0       0       0       0       0       
      +0       0       0       0       0
  3933 ;;      Locals:         0       0       0       0       0       0       0       0       0       0       0       0       
      +0       0       0       0       0
  3934 ;;      Temps:          3       0       0       0       0       0       0       0       0       0       0       0       
      +0       0       0       0       0
  3935 ;;      Totals:         3       0       0       0       0       0       0       0       0       0       0       0       
      +0       0       0       0       0
  3936 ;;Total ram usage:        3 bytes
  3937 ;; Hardware stack levels used: 1
  3938 ;; This function calls:
  3939 ;;		Nothing
  3940 ;; This function is called by:
  3941 ;;		_highPriorityISR
  3942 ;; This function uses a non-reentrant model
  3943 ;;
  3944                           
  3945                           	psect	text39
  3946   001972                     __ptext39:
  3947                           	callstack 0
  3948   001972                     _adc_isr:
  3949                           	callstack 25
  3950                           
  3951                           ;main.c: 251:     INTCONbits.GIE = 1;
  3952                           
  3953                           ;incstack = 0
  3954   001972  CFC4 F024          	movff	4036,??_adc_isr	;volatile
  3955   001976  0E0F               	movlw	15
  3956   001978  1624               	andwf	??_adc_isr^0,f,c
  3957   00197A  5024               	movf	??_adc_isr^0,w,c
  3958   00197C  CFC4 F025          	movff	4036,??_adc_isr+1	;volatile
  3959   001980  6A26               	clrf	(??_adc_isr+2)^0,c
  3960   001982  C025  F026         	movff	??_adc_isr+1,??_adc_isr+2
  3961   001986  6A25               	clrf	(??_adc_isr+1)^0,c
  3962   001988  1025               	iorwf	(??_adc_isr+1)^0,w,c
  3963   00198A  6E18               	movwf	_adc^0,c
  3964   00198C  5026               	movf	(??_adc_isr+2)^0,w,c
  3965   00198E  6E19               	movwf	(_adc+1)^0,c
  3966                           
  3967                           ;main.c: 253: 
  3968   001990  9C9E               	bcf	158,6,c	;volatile
  3969   001992  0012               	return		;funcret
  3970   001994                     __end_of_adc_isr:
  3971                           	callstack 0
  3972                           
  3973                           	psect	smallconst
  3974   001000                     __psmallconst:
  3975                           	callstack 0
  3976   001000  00                 	db	0
  3977   001001  00                 	db	0	; dummy byte at the end
  3978   000000                     
  3979                           	psect	rparam
  3980   000000                     
  3981                           	psect	temp
  3982   000045                     btemp:
  3983                           	callstack 0
  3984   000045                     	ds	1
  3985   000000                     int$flags	set	btemp
  3986   000000                     wtemp8	set	btemp+1
  3987   000000                     ttemp5	set	btemp+1
  3988   000000                     ttemp6	set	btemp+4
  3989   000000                     ttemp7	set	btemp+8
  3990                           
  3991                           	psect	idloc
  3992                           
  3993                           ;Config register IDLOC0 @ 0x200000
  3994                           ;	unspecified, using default values
  3995   200000                     	org	2097152
  3996   200000  FF                 	db	255
  3997                           
  3998                           ;Config register IDLOC1 @ 0x200001
  3999                           ;	unspecified, using default values
  4000   200001                     	org	2097153
  4001   200001  FF                 	db	255
  4002                           
  4003                           ;Config register IDLOC2 @ 0x200002
  4004                           ;	unspecified, using default values
  4005   200002                     	org	2097154
  4006   200002  FF                 	db	255
  4007                           
  4008                           ;Config register IDLOC3 @ 0x200003
  4009                           ;	unspecified, using default values
  4010   200003                     	org	2097155
  4011   200003  FF                 	db	255
  4012                           
  4013                           ;Config register IDLOC4 @ 0x200004
  4014                           ;	unspecified, using default values
  4015   200004                     	org	2097156
  4016   200004  FF                 	db	255
  4017                           
  4018                           ;Config register IDLOC5 @ 0x200005
  4019                           ;	unspecified, using default values
  4020   200005                     	org	2097157
  4021   200005  FF                 	db	255
  4022                           
  4023                           ;Config register IDLOC6 @ 0x200006
  4024                           ;	unspecified, using default values
  4025   200006                     	org	2097158
  4026   200006  FF                 	db	255
  4027                           
  4028                           ;Config register IDLOC7 @ 0x200007
  4029                           ;	unspecified, using default values
  4030   200007                     	org	2097159
  4031   200007  FF                 	db	255
  4032                           
  4033                           	psect	config
  4034                           
  4035                           ; Padding undefined space
  4036   300000                     	org	3145728
  4037   300000  FF                 	db	255
  4038                           
  4039                           ;Config register CONFIG1H @ 0x300001
  4040                           ;	Oscillator Selection bits
  4041                           ;	OSC = HSPLL, HS oscillator, PLL enabled (Clock Frequency = 4 x FOSC1)
  4042                           ;	Fail-Safe Clock Monitor Enable bit
  4043                           ;	FCMEN = OFF, Fail-Safe Clock Monitor disabled
  4044                           ;	Internal/External Oscillator Switchover bit
  4045                           ;	IESO = OFF, Two-Speed Start-up disabled
  4046   300001                     	org	3145729
  4047   300001  06                 	db	6
  4048                           
  4049                           ;Config register CONFIG2L @ 0x300002
  4050                           ;	Power-up Timer Enable bit
  4051                           ;	PWRT = OFF, PWRT disabled
  4052                           ;	Brown-out Reset Enable bits
  4053                           ;	BOREN = OFF, Brown-out Reset disabled in hardware and software
  4054                           ;	Brown-out Voltage bits
  4055                           ;	BORV = 3, Minimum setting
  4056   300002                     	org	3145730
  4057   300002  19                 	db	25
  4058                           
  4059                           ;Config register CONFIG2H @ 0x300003
  4060                           ;	Watchdog Timer
  4061                           ;	WDT = OFF, WDT disabled (control is placed on the SWDTEN bit)
  4062                           ;	Watchdog Timer Postscale Select bits
  4063                           ;	WDTPS = 32768, 1:32768
  4064   300003                     	org	3145731
  4065   300003  1E                 	db	30
  4066                           
  4067                           ;Config register CONFIG3L @ 0x300004
  4068                           ;	Processor Data Memory Mode Select bits
  4069                           ;	MODE = MC, Microcontroller mode
  4070                           ;	Address Bus Width Select bits
  4071                           ;	ADDRBW = ADDR20BIT, 20-bit Address Bus
  4072                           ;	Data Bus Width Select bit
  4073                           ;	DATABW = DATA16BIT, 16-bit External Bus mode
  4074                           ;	External Bus Data Wait Enable bit
  4075                           ;	WAIT = OFF, Wait selections are unavailable for table reads and table writes
  4076   300004                     	org	3145732
  4077   300004  F3                 	db	243
  4078                           
  4079                           ;Config register CONFIG3H @ 0x300005
  4080                           ;	CCP2 MUX bit
  4081                           ;	CCP2MX = PORTC, ECCP2 input/output is multiplexed with RC1
  4082                           ;	ECCP MUX bit
  4083                           ;	ECCPMX = PORTE, ECCP1/3 (P1B/P1C/P3B/P3C) are multiplexed onto RE6, RE5, RE4 and RE3 r
      +                          espectively
  4084                           ;	Low-Power Timer1 Oscillator Enable bit
  4085                           ;	LPT1OSC = OFF, Timer1 configured for higher power operation
  4086                           ;	MCLR Pin Enable bit
  4087                           ;	MCLRE = ON, MCLR pin enabled; RG5 input pin disabled
  4088   300005                     	org	3145733
  4089   300005  83                 	db	131
  4090                           
  4091                           ;Config register CONFIG4L @ 0x300006
  4092                           ;	Stack Full/Underflow Reset Enable bit
  4093                           ;	STVREN = ON, Stack full/underflow will cause Reset
  4094                           ;	Single-Supply ICSP Enable bit
  4095                           ;	LVP = OFF, Single-Supply ICSP disabled
  4096                           ;	Boot Block Size Select bits
  4097                           ;	BBSIZ = BB2K, 1K word (2 Kbytes) Boot Block size
  4098                           ;	Extended Instruction Set Enable bit
  4099                           ;	XINST = OFF, Instruction set extension and Indexed Addressing mode disabled (Legacy mo
      +                          de)
  4100                           ;	Background Debugger Enable bit
  4101                           ;	DEBUG = OFF, Background debugger disabled, RB6 and RB7 configured as general purpose I
      +                          /O pins
  4102   300006                     	org	3145734
  4103   300006  81                 	db	129
  4104                           
  4105                           ; Padding undefined space
  4106   300007                     	org	3145735
  4107   300007  FF                 	db	255
  4108                           
  4109                           ;Config register CONFIG5L @ 0x300008
  4110                           ;	Code Protection bit Block 0
  4111                           ;	CP0 = OFF, Block 0 (000800, 001000 or 002000-003FFFh) not code-protected
  4112                           ;	Code Protection bit Block 1
  4113                           ;	CP1 = OFF, Block 1 (004000-007FFFh) not code-protected
  4114                           ;	Code Protection bit Block 2
  4115                           ;	CP2 = OFF, Block 2 (008000-00BFFFh) not code-protected
  4116                           ;	Code Protection bit Block 3
  4117                           ;	CP3 = OFF, Block 3 (00C000-00FFFFh) not code-protected
  4118                           ;	Code Protection bit Block 4
  4119                           ;	CP4 = OFF, Block 4 (010000-013FFFh) not code-protected
  4120                           ;	Code Protection bit Block 5
  4121                           ;	CP5 = OFF, Block 5 (014000-017FFFh) not code-protected
  4122                           ;	Code Protection bit Block 6
  4123                           ;	CP6 = OFF, Block 6 (01BFFF-018000h) not code-protected
  4124                           ;	Code Protection bit Block 7
  4125                           ;	CP7 = OFF, Block 7 (01C000-01FFFFh) not code-protected
  4126   300008                     	org	3145736
  4127   300008  FF                 	db	255
  4128                           
  4129                           ;Config register CONFIG5H @ 0x300009
  4130                           ;	Boot Block Code Protection bit
  4131                           ;	CPB = OFF, Boot Block (000000-0007FFh) not code-protected
  4132                           ;	Data EEPROM Code Protection bit
  4133                           ;	CPD = OFF, Data EEPROM not code-protected
  4134   300009                     	org	3145737
  4135   300009  C0                 	db	192
  4136                           
  4137                           ;Config register CONFIG6L @ 0x30000A
  4138                           ;	Write Protection bit Block 0
  4139                           ;	WRT0 = OFF, Block 0 (000800, 001000 or 002000-003FFFh) not write-protected
  4140                           ;	Write Protection bit Block 1
  4141                           ;	WRT1 = OFF, Block 1 (004000-007FFFh) not write-protected
  4142                           ;	Write Protection bit Block 2
  4143                           ;	WRT2 = OFF, Block 2 (008000-00BFFFh) not write-protected
  4144                           ;	Write Protection bit Block 3
  4145                           ;	WRT3 = OFF, Block 3 (00C000-00FFFFh) not write-protected
  4146                           ;	Write Protection bit Block 4
  4147                           ;	WRT4 = OFF, Block 4 (010000-013FFFh) not write-protected
  4148                           ;	Write Protection bit Block 5
  4149                           ;	WRT5 = OFF, Block 5 (014000-017FFFh) not write-protected
  4150                           ;	Write Protection bit Block 6
  4151                           ;	WRT6 = OFF, Block 6 (01BFFF-018000h) not write-protected
  4152                           ;	Write Protection bit Block 7
  4153                           ;	WRT7 = OFF, Block 7 (01C000-01FFFFh) not write-protected
  4154   30000A                     	org	3145738
  4155   30000A  FF                 	db	255
  4156                           
  4157                           ;Config register CONFIG6H @ 0x30000B
  4158                           ;	Configuration Register Write Protection bit
  4159                           ;	WRTC = OFF, Configuration registers (300000-3000FFh) not write-protected
  4160                           ;	Boot Block Write Protection bit
  4161                           ;	WRTB = OFF, Boot Block (000000-007FFF, 000FFF or 001FFFh) not write-protected
  4162                           ;	Data EEPROM Write Protection bit
  4163                           ;	WRTD = OFF, Data EEPROM not write-protected
  4164   30000B                     	org	3145739
  4165   30000B  E0                 	db	224
  4166                           
  4167                           ;Config register CONFIG7L @ 0x30000C
  4168                           ;	Table Read Protection bit Block 0
  4169                           ;	EBTR0 = OFF, Block 0 (000800, 001000 or 002000-003FFFh) not protected from table reads
      +                           executed in other blocks
  4170                           ;	Table Read Protection bit Block 1
  4171                           ;	EBTR1 = OFF, Block 1 (004000-007FFFh) not protected from table reads executed in other
      +                           blocks
  4172                           ;	Table Read Protection bit Block 2
  4173                           ;	EBTR2 = OFF, Block 2 (008000-00BFFFh) not protected from table reads executed in other
      +                           blocks
  4174                           ;	Table Read Protection bit Block 3
  4175                           ;	EBTR3 = OFF, Block 3 (00C000-00FFFFh) not protected from table reads executed in other
      +                           blocks
  4176                           ;	Table Read Protection bit Block 4
  4177                           ;	EBTR4 = OFF, Block 4 (010000-013FFFh) not protected from table reads executed in other
      +                           blocks
  4178                           ;	Table Read Protection bit Block 5
  4179                           ;	EBTR5 = OFF, Block 5 (014000-017FFFh) not protected from table reads executed in other
      +                           blocks
  4180                           ;	Table Read Protection bit Block 6
  4181                           ;	EBTR6 = OFF, Block 6 (018000-01BFFFh) not protected from table reads executed in other
      +                           blocks
  4182                           ;	Table Read Protection bit Block 7
  4183                           ;	EBTR7 = OFF, Block 7 (01C000-01FFFFh) not protected from table reads executed in other
      +                           blocks
  4184   30000C                     	org	3145740
  4185   30000C  FF                 	db	255
  4186                           
  4187                           ;Config register CONFIG7H @ 0x30000D
  4188                           ;	Boot Block Table Read Protection bit
  4189                           ;	EBTRB = OFF, Boot Block (000000-007FFF, 000FFF or 001FFFh) not protected from table re
      +                          ads executed in other blocks
  4190   30000D                     	org	3145741
  4191   30000D  40                 	db	64
  4192                           tosu	equ	0xFFF
  4193                           tosh	equ	0xFFE
  4194                           tosl	equ	0xFFD
  4195                           stkptr	equ	0xFFC
  4196                           pclatu	equ	0xFFB
  4197                           pclath	equ	0xFFA
  4198                           pcl	equ	0xFF9
  4199                           tblptru	equ	0xFF8
  4200                           tblptrh	equ	0xFF7
  4201                           tblptrl	equ	0xFF6
  4202                           tablat	equ	0xFF5
  4203                           prodh	equ	0xFF4
  4204                           prodl	equ	0xFF3
  4205                           indf0	equ	0xFEF
  4206                           postinc0	equ	0xFEE
  4207                           postdec0	equ	0xFED
  4208                           preinc0	equ	0xFEC
  4209                           plusw0	equ	0xFEB
  4210                           fsr0h	equ	0xFEA
  4211                           fsr0l	equ	0xFE9
  4212                           wreg	equ	0xFE8
  4213                           indf1	equ	0xFE7
  4214                           postinc1	equ	0xFE6
  4215                           postdec1	equ	0xFE5
  4216                           preinc1	equ	0xFE4
  4217                           plusw1	equ	0xFE3
  4218                           fsr1h	equ	0xFE2
  4219                           fsr1l	equ	0xFE1
  4220                           bsr	equ	0xFE0
  4221                           indf2	equ	0xFDF
  4222                           postinc2	equ	0xFDE
  4223                           postdec2	equ	0xFDD
  4224                           preinc2	equ	0xFDC
  4225                           plusw2	equ	0xFDB
  4226                           fsr2h	equ	0xFDA
  4227                           fsr2l	equ	0xFD9
  4228                           status	equ	0xFD8

Data Sizes:
    Strings     0
    Constant    0
    Data        0
    BSS         545
    Persistent  0
    Stack       0

Auto Spaces:
    Space          Size  Autos    Used
    COMRAM           94     33      68
    BANK0           160      0       0
    BANK1           256      0     255
    BANK2           256      0     255
    BANK3           256      0       0
    BANK4           256      0       0
    BANK5           256      0       0
    BANK6           256      0       0
    BANK7           256      0       0
    BANK8           256      0       0
    BANK9           256      0       0
    BANK10          256      0       0
    BANK11          256      0       0
    BANK12          256      0       0
    BANK13          256      0       0
    BANK14          256      0       0
    BANK15           96      0       0

Pointer List with Targets:

    None.

Critical Paths under _main in COMRAM

    _main->_parse
    _parse->_get_altitude
    _get_altitude->___lwdiv

Critical Paths under _lowPriorityISR in COMRAM

    None.

Critical Paths under _highPriorityISR in COMRAM

    _timer_isr->_send_altitude
    _send_distance->_buf_push
    _send_button_press->_buf_push
    _send_altitude->_buf_push
    _receive_isr->_buf_push

Critical Paths under _main in BANK0

    None.

Critical Paths under _lowPriorityISR in BANK0

    None.

Critical Paths under _highPriorityISR in BANK0

    None.

Critical Paths under _main in BANK1

    None.

Critical Paths under _lowPriorityISR in BANK1

    None.

Critical Paths under _highPriorityISR in BANK1

    None.

Critical Paths under _main in BANK2

    None.

Critical Paths under _lowPriorityISR in BANK2

    None.

Critical Paths under _highPriorityISR in BANK2

    None.

Critical Paths under _main in BANK3

    None.

Critical Paths under _lowPriorityISR in BANK3

    None.

Critical Paths under _highPriorityISR in BANK3

    None.

Critical Paths under _main in BANK4

    None.

Critical Paths under _lowPriorityISR in BANK4

    None.

Critical Paths under _highPriorityISR in BANK4

    None.

Critical Paths under _main in BANK5

    None.

Critical Paths under _lowPriorityISR in BANK5

    None.

Critical Paths under _highPriorityISR in BANK5

    None.

Critical Paths under _main in BANK6

    None.

Critical Paths under _lowPriorityISR in BANK6

    None.

Critical Paths under _highPriorityISR in BANK6

    None.

Critical Paths under _main in BANK7

    None.

Critical Paths under _lowPriorityISR in BANK7

    None.

Critical Paths under _highPriorityISR in BANK7

    None.

Critical Paths under _main in BANK8

    None.

Critical Paths under _lowPriorityISR in BANK8

    None.

Critical Paths under _highPriorityISR in BANK8

    None.

Critical Paths under _main in BANK9

    None.

Critical Paths under _lowPriorityISR in BANK9

    None.

Critical Paths under _highPriorityISR in BANK9

    None.

Critical Paths under _main in BANK10

    None.

Critical Paths under _lowPriorityISR in BANK10

    None.

Critical Paths under _highPriorityISR in BANK10

    None.

Critical Paths under _main in BANK11

    None.

Critical Paths under _lowPriorityISR in BANK11

    None.

Critical Paths under _highPriorityISR in BANK11

    None.

Critical Paths under _main in BANK12

    None.

Critical Paths under _lowPriorityISR in BANK12

    None.

Critical Paths under _highPriorityISR in BANK12

    None.

Critical Paths under _main in BANK13

    None.

Critical Paths under _lowPriorityISR in BANK13

    None.

Critical Paths under _highPriorityISR in BANK13

    None.

Critical Paths under _main in BANK14

    None.

Critical Paths under _lowPriorityISR in BANK14

    None.

Critical Paths under _highPriorityISR in BANK14

    None.

Critical Paths under _main in BANK15

    None.

Critical Paths under _lowPriorityISR in BANK15

    None.

Critical Paths under _highPriorityISR in BANK15

    None.

Call Graph Tables:

 ---------------------------------------------------------------------------------
 (Depth) Function   	        Calls       Base Space   Used Autos Params    Refs
 ---------------------------------------------------------------------------------
 (0) _main                                                 0     0      0    1429
                           _adc_task
                           _init_adc
                    _init_interrupts
                         _init_ports
                        _init_serial
                         _init_timer
                          _init_vars
                              _parse
                       _start_system
 ---------------------------------------------------------------------------------
 (1) _start_system                                         0     0      0       0
 ---------------------------------------------------------------------------------
 (1) _parse                                                6     6      0    1429
                                             27 COMRAM     6     6      0
                        _buf_isempty
                            _buf_pop
                 _disable_interrupts
                  _enable_interrupts
                       _get_altitude
                            _get_end
                             _get_go
                            _get_led
                         _get_manual
                          _get_speed
                          _to_nibble
 ---------------------------------------------------------------------------------
 (2) _to_nibble                                            1     1      0     198
                                             18 COMRAM     1     1      0
 ---------------------------------------------------------------------------------
 (2) _get_speed                                            2     0      2      98
                                             18 COMRAM     2     0      2
 ---------------------------------------------------------------------------------
 (2) _get_manual                                           1     1      0      22
                                             18 COMRAM     1     1      0
 ---------------------------------------------------------------------------------
 (2) _get_led                                              3     3      0      22
                                             18 COMRAM     3     3      0
 ---------------------------------------------------------------------------------
 (2) _get_go                                               2     0      2      98
                                             18 COMRAM     2     0      2
                      _enable_timer0
 ---------------------------------------------------------------------------------
 (3) _enable_timer0                                        0     0      0       0
 ---------------------------------------------------------------------------------
 (2) _get_end                                              0     0      0       0
                     _disable_timer0
 ---------------------------------------------------------------------------------
 (3) _disable_timer0                                       0     0      0       0
 ---------------------------------------------------------------------------------
 (2) _get_altitude                                         2     0      2     412
                                             25 COMRAM     2     0      2
                            ___lwdiv
 ---------------------------------------------------------------------------------
 (3) ___lwdiv                                              7     3      4     314
                                             18 COMRAM     7     3      4
 ---------------------------------------------------------------------------------
 (2) _disable_interrupts                                   0     0      0       0
 ---------------------------------------------------------------------------------
 (7) _buf_pop                                              4     4      0     222
                        _buf_isempty
 ---------------------------------------------------------------------------------
 (8) _buf_isempty                                          3     3      0      44
 ---------------------------------------------------------------------------------
 (1) _init_vars                                            0     0      0       0
 ---------------------------------------------------------------------------------
 (1) _init_timer                                           0     0      0       0
 ---------------------------------------------------------------------------------
 (1) _init_serial                                          0     0      0       0
 ---------------------------------------------------------------------------------
 (1) _init_ports                                           0     0      0       0
 ---------------------------------------------------------------------------------
 (1) _init_interrupts                                      0     0      0       0
                  _enable_interrupts
 ---------------------------------------------------------------------------------
 (2) _enable_interrupts                                    0     0      0       0
 ---------------------------------------------------------------------------------
 (1) _init_adc                                             0     0      0       0
 ---------------------------------------------------------------------------------
 (1) _adc_task                                             0     0      0       0
 ---------------------------------------------------------------------------------
 Estimated maximum stack depth 8
 ---------------------------------------------------------------------------------
 (Depth) Function   	        Calls       Base Space   Used Autos Params    Refs
 ---------------------------------------------------------------------------------
 (4) _lowPriorityISR                                       1     1      0       0
                                             17 COMRAM     1     1      0
 ---------------------------------------------------------------------------------
 Estimated maximum stack depth 4
 ---------------------------------------------------------------------------------
 (Depth) Function   	        Calls       Base Space   Used Autos Params    Refs
 ---------------------------------------------------------------------------------
 (5) _highPriorityISR                                      4     4      0   10178
                                             13 COMRAM     4     4      0
                            _adc_isr
                          _portb_isr
                        _receive_isr
                          _timer_isr
                       _transmit_isr
 ---------------------------------------------------------------------------------
 (6) _transmit_isr                                         0     0      0     266
                        _buf_isempty
                            _buf_pop
 ---------------------------------------------------------------------------------
 (7) _buf_pop                                              4     4      0     222
                        _buf_isempty
 ---------------------------------------------------------------------------------
 (8) _buf_isempty                                          3     3      0      44
 ---------------------------------------------------------------------------------
 (6) _timer_isr                                            0     0      0    7595
                      _send_altitude
                  _send_button_press
                      _send_distance
 ---------------------------------------------------------------------------------
 (7) _send_distance                                        7     5      2    2548
                                              4 COMRAM     7     5      2
                           _buf_push
                               _send
                             _to_hex
               i2_disable_interrupts
                i2_enable_interrupts
 ---------------------------------------------------------------------------------
 (7) _send_button_press                                    4     4      0    2334
                                              4 COMRAM     4     4      0
                           _buf_push
                               _send
                             _to_hex
               i2_disable_interrupts
                i2_enable_interrupts
 ---------------------------------------------------------------------------------
 (7) _send_altitude                                        9     7      2    2713
                                              4 COMRAM     9     7      2
                         _adc_to_alt
                           _buf_push
                               _send
                             _to_hex
               i2_disable_interrupts
                i2_enable_interrupts
 ---------------------------------------------------------------------------------
 (8) i2_enable_interrupts                                  0     0      0       0
 ---------------------------------------------------------------------------------
 (8) i2_disable_interrupts                                 0     0      0       0
 ---------------------------------------------------------------------------------
 (8) _to_hex                                               1     1      0      45
                                              0 COMRAM     1     1      0
 ---------------------------------------------------------------------------------
 (8) _send                                                 0     0      0       0
 ---------------------------------------------------------------------------------
 (8) _adc_to_alt                                           2     0      2     142
                                              0 COMRAM     2     0      2
 ---------------------------------------------------------------------------------
 (6) _receive_isr                                          0     0      0    2152
                           _buf_push
 ---------------------------------------------------------------------------------
 (8) _buf_push                                             4     3      1    2152
                                              0 COMRAM     4     3      1
 ---------------------------------------------------------------------------------
 (6) _portb_isr                                            5     5      0     165
                                              0 COMRAM     5     5      0
 ---------------------------------------------------------------------------------
 (6) _adc_isr                                              3     3      0       0
                                              0 COMRAM     3     3      0
 ---------------------------------------------------------------------------------
 Estimated maximum stack depth 8
 ---------------------------------------------------------------------------------

 Call Graph Graphs:

 _main (ROOT)
   _adc_task
   _init_adc
   _init_interrupts
     _enable_interrupts
   _init_ports
   _init_serial
   _init_timer
   _init_vars
   _parse
     _buf_isempty
     _buf_pop
       _buf_isempty
     _disable_interrupts
     _enable_interrupts
     _get_altitude
       ___lwdiv
     _get_end
       _disable_timer0
     _get_go
       _enable_timer0
     _get_led
     _get_manual
     _get_speed
     _to_nibble
   _start_system

 _lowPriorityISR (ROOT)

 _highPriorityISR (ROOT)
   _adc_isr
   _portb_isr
   _receive_isr
     _buf_push
   _timer_isr
     _send_altitude
       _adc_to_alt
       _buf_push
       _send
       _to_hex
       i2_disable_interrupts
       i2_enable_interrupts
     _send_button_press
       _buf_push
       _send
       _to_hex
       i2_disable_interrupts
       i2_enable_interrupts
     _send_distance
       _buf_push
       _send
       _to_hex
       i2_disable_interrupts
       i2_enable_interrupts
   _transmit_isr
     _buf_isempty
     _buf_pop
       _buf_isempty

 Address spaces:
Name               Size   Autos  Total    Cost      Usage
BIGRAM             F5F      0       0      50        0.0%
EEDATA             400      0       0       0        0.0%
BITBANK14          100      0       0      32        0.0%
BANK14             100      0       0      33        0.0%
BITBANK13          100      0       0      30        0.0%
BANK13             100      0       0      31        0.0%
BITBANK12          100      0       0      28        0.0%
BANK12             100      0       0      29        0.0%
BITBANK11          100      0       0      26        0.0%
BANK11             100      0       0      27        0.0%
BITBANK10          100      0       0      24        0.0%
BANK10             100      0       0      25        0.0%
BITBANK9           100      0       0      22        0.0%
BANK9              100      0       0      23        0.0%
BITBANK8           100      0       0      20        0.0%
BANK8              100      0       0      21        0.0%
BITBANK7           100      0       0      18        0.0%
BANK7              100      0       0      19        0.0%
BITBANK6           100      0       0      16        0.0%
BANK6              100      0       0      17        0.0%
BITBANK5           100      0       0      14        0.0%
BANK5              100      0       0      15        0.0%
BITBANK4           100      0       0      12        0.0%
BANK4              100      0       0      13        0.0%
BITBANK3           100      0       0      10        0.0%
BANK3              100      0       0      11        0.0%
BITBANK2           100      0       0       8        0.0%
BANK2              100      0      FF       9       99.6%
BITBANK1           100      0       0       6        0.0%
BANK1              100      0      FF       7       99.6%
BITBANK0            A0      0       0       4        0.0%
BANK0               A0      0       0       5        0.0%
BITBANK15           60      0       0      34        0.0%
BANK15              60      0       0      35        0.0%
BITCOMRAM           5E      0       0       0        0.0%
COMRAM              5E     21      44       1       72.3%
BITBIGSFRllll       1E      0       0      48        0.0%
BITBIGSFRlhh        1A      0       0      37        0.0%
BITBIGSFRllhhhh     10      0       0      38        0.0%
BITBIGSFRllhhhl     10      0       0      39        0.0%
BITBIGSFRh           D      0       0      36        0.0%
BITBIGSFRllhlh       C      0       0      40        0.0%
BITBIGSFRllhlll      3      0       0      44        0.0%
BITBIGSFRllhllh      3      0       0      41        0.0%
BITBIGSFRllhllh      3      0       0      42        0.0%
BITBIGSFRllhlll      3      0       0      46        0.0%
BITBIGSFRlllh        1      0       0      47        0.0%
BITBIGSFRllhlll      1      0       0      43        0.0%
BITBIGSFRllhlll      1      0       0      45        0.0%
BIGSFR               0      0       0     200        0.0%
BITSFR               0      0       0     200        0.0%
SFR                  0      0       0     200        0.0%
STACK                0      0       0       2        0.0%
NULL                 0      0       0       0        0.0%
ABS                  0      0     242      49        0.0%
DATA                 0      0     242       3        0.0%
CODE                 0      0       0       0        0.0%


Microchip Technology PIC18 Macro Assembler V2.45 build 20230818022343 
Symbol Table                                                                                   Thu May 30 22:02:35 2024

            ??_disable_timer0 0036                            bsr 0FE0                           l251 16D2  
                         l316 1130                           l253 16EC                           l245 19CE  
                         l254 16F4                           l255 16FC                           l256 1704  
                         l837 17E6             ??_init_interrupts 0036                           _adc 0018  
                         wreg 0FE8                    _TXSTA1bits 0FAC                   buf_push@buf 0024  
              get_go@distance 0036                          l2023 1016                          l2121 118A  
                        l2041 1058                          l2131 11B6                          l2027 1022  
                        l2019 1008                          l2133 11C4                          l2125 1194  
                        l2141 1208                          l2109 115A                          l2135 11CC  
                        l2127 11A2                          l2129 11A8                          l2081 10F0  
                        l2073 10D0                          l2065 10B4                          l2057 1098  
                        l2049 1078                          l2145 121A                          l2139 11D4  
                        l2083 10F6                          l2085 1104                          l2149 123E  
                        l2191 1946                          l1911 170C                          l1745 17B4  
                        l1747 17BC                          l1757 17DC                          l1927 1902  
                        l1945 1926                          l1937 1914                          u1000 17C0  
                        u1050 19C0                          u1060 19C2                          u1500 113A  
                        _LATA 0F89                          u1510 113C                          _LATB 0F8A  
                        _LATC 0F8B                          u1520 114A                          _LATD 0F8C  
                        u1530 114C                          u1450 1114                          _LATH 0F90  
                        u1470 1120                          u1490 112C                ??_get_altitude 003F  
                _transmit_isr 1994                          _head 0012                          _dist 001A  
                        _main 192A                          _tail 0010                          _send 1AB2  
                        fsr1h 0FE2                          fsr2h 0FDA                          indf2 0FDF  
                        fsr1l 0FE1                          fsr2l 0FD9                          btemp 0045  
                        start 0026                  _start_system 1A9E                  ___param_bank 0000  
            send_altitude@alt 002E              send_altitude@hex 0030                  _BAUDCON1bits 0F7E  
                       ?_main 0024                         ?_send 0024                         _T0CON 0FD5  
             __end_of_adc_isr 1994               __end_of___lwdiv 17F0                         i2l160 150E  
                       i2l161 1524                         i2l162 153A                         _TMR0H 0FD7  
                       _TMR0L 0FD6                         _PORTA 0F80                         _PORTB 0F81  
                       _PORTC 0F82                         _PORTD 0F83                         _PORTH 0F87  
                       _TRISA 0F92                         _TRISB 0F93                         _TRISC 0F94  
                       _TRISD 0F95                         _TRISH 0F99                  get_speed@spd 0036  
                ?_init_serial 0024               __end_of_get_end 1A52               __end_of_get_led 173C  
             __end_of_buf_pop 16CE                         _inbuf 0100                         _parse 1002  
          _disable_interrupts 1AA2                         _speed 0016      _digit_count_to_be_parsed 001D  
            send_distance@hex 002E                 parse@is_digit 0043                         ttemp5 0046  
                       ttemp6 0049                         ttemp7 004D                         status 0FD8  
                       wtemp8 0046           ?_disable_interrupts 0024                  ?_receive_isr 0024  
              _lowPriorityISR 0018               __initialization 1834             _send_button_press 15E2  
                __end_of_main 1950                  __end_of_send 1AB6            ?_send_button_press 0024  
       __end_of_send_altitude 133A         __end_of_send_distance 1410                buf_isempty@buf 0026  
                      ??_main 0045                        ??_send 0024                 __activetblptr 0003  
        ??_disable_interrupts 0036           ??_send_button_press 0028                        _ADCON0 0FC2  
                      _ADCON1 0FC1                        _ADCON2 0FC0                        _ADRESH 0FC4  
                      _ADRESL 0FC3                        ?_parse 0024          send_altitude@nibble0 002A  
        send_altitude@nibble1 002B          send_altitude@nibble2 002C          send_altitude@nibble3 002D  
            __end_of_adc_task 1A92                        i2l1103 1A28                        i2l2001 1490  
                      i2l2007 14A2                        i2l2009 14AE                        i2l1391 1550  
                      i2l1707 175C                        i2l1735 18E4                        i2l1727 18D2  
                      i2l1719 18C0                        i2l1781 16CA                        i2l1773 166C  
                      i2l1777 168A                        i2l1961 19AA                        i2l1971 1430  
                      i2l1973 1438                        i2l1983 145A                        i2l1995 147E  
                      i2l1989 146C                        _RCREG1 0FAE                        _SPBRG1 0FAF  
                      _TXREG1 0FAD        __end_of_lowPriorityISR 0026     __end_of_send_button_press 165A  
            __end_of_buf_push 179E                     ??_adc_isr 0024                     ??___lwdiv 003A  
                      _get_go 1A62              __end_of_init_adc 1A06                        clear_0 183C  
                      clear_1 1850                        clear_2 1862          __end_of_get_altitude 19F0  
                      isa$std 0001                        _to_hex 1A1A                        _outbuf 0200  
                   ??_get_end 0036                     ??_get_led 0036                     ??_buf_pop 0027  
                __mediumconst 0000                    __accesstop 0060       __end_of__initialization 1868  
         i2_enable_interrupts 1AAA               ?_lowPriorityISR 0024                 ___rparam_used 0001  
             _init_interrupts 1A52                __pcstackCOMRAM 0024                 __end_of_parse 1250  
                 parse@is_end 0041                    _adc_to_alt 18B0          ?i2_enable_interrupts 0024  
                     ??_parse 003F                    __pbssBANK1 0100                    __pbssBANK2 0200  
       __end_of_enable_timer0 1A98             ??_highPriorityISR 0031  __end_ofi2_disable_interrupts 1AB2  
                     ?_get_go 0036         ??i2_enable_interrupts 0024                       ?_to_hex 0024  
                   ?_adc_task 0024                    _get_manual 19B4                       i2u24_40 14D0  
                     i2u24_46 14D2                       i2u25_40 14DC                       i2u25_46 14DE  
                     i2u26_40 14E8                       i2u26_46 14EA                       i2u27_40 14F4  
                     i2u27_46 14F6                       i2u92_40 196E                     ?_buf_push 0024  
     __end_of_init_interrupts 1A62                     ?_init_adc 0024            get_altitude@period 003D  
                     __Hparam 0000                       __Lparam 0000             __end_of_get_speed 1A88  
                  _parse$1054 0042                       _adc_isr 1972                       ___lwdiv 179E  
                __psmallconst 1000                   ?_adc_to_alt 0024                       __pcinit 1834  
                  _init_timer 1A70                    _init_ports 1872                       __ramtop 1000  
                     __ptext0 192A                       __ptext1 1A9E                       __ptext2 1002  
                     __ptext3 18EE                       __ptext4 1A7E                       __ptext5 19B4  
                     __ptext6 16CE                       __ptext7 1A62                       __ptext8 1A92  
                     __ptext9 1A42                    ??_adc_task 0036                       _get_end 1A42  
                     _get_led 16CE                       _buf_pop 165A                     _T0CONbits 0FD5  
                     _counter 0022             __end_of_init_vars 15E2                    ??_buf_push 0025  
              __pintcode_body 17F0          end_of_initialization 1868                  _get_altitude 19D2  
                  ??_init_adc 0036                       int_func 17F0             __end_of_to_nibble 192A  
           __end_of_timer_isr 14BA             __end_of_portb_isr 1564                     _RCSTAbits 0FAB  
          _parsed_digit_count 001C                       postdec1 0FE5                       postinc0 0FEE  
                     postinc1 0FE6                       postinc2 0FDE                     _PORTBbits 0F81  
               _parsed_number 0014              portb_isr@current 0025                    _portb_send 0001  
                  _portb_prev 0009                   ?_get_manual 0024                    get_led@led 0038  
        i2_disable_interrupts 1AAE              ??_lowPriorityISR 0035                    buf_pop@buf 002A  
            ?_init_interrupts 0024      send_button_press@nibble0 0028      send_button_press@nibble1 0029  
               ??_buf_isempty 0024                   ?_init_timer 0024                   ?_init_ports 0024  
              __end_of_get_go 1A70          get_manual@activation 0036             _enable_interrupts 1AA6  
              __end_of_to_hex 1A2E            ?_enable_interrupts 0024           start_initialization 1834  
       ?i2_disable_interrupts 0024               _altitude_period 0023               _highPriorityISR 0008  
         ??_enable_interrupts 0036                 ?_transmit_isr 0024                 ?_start_system 0024  
         __end_of_buf_isempty 1972                      ??_get_go 0038     __end_of_enable_interrupts 1AAA  
                    ??_to_hex 0024                 _send_altitude 1250                 _send_distance 133A  
               ??_init_serial 0036                   __pbssCOMRAM 0001                _disable_timer0 1A98  
                  parse@value 0044                ??_transmit_isr 002B        send_altitude@adc_value 0028  
       send_distance@distance 0028                ??_start_system 0036                 ??_receive_isr 0028  
            ___lwdiv@dividend 0036   __end_ofi2_enable_interrupts 1AAE                     __pintcode 0008  
                    ?_adc_isr 0024                      ?___lwdiv 0036                  ??_adc_to_alt 0026  
                 __pintcodelo 0018                ?_send_altitude 0028                     _get_speed 1A7E  
              ?_send_distance 0028                      ?_get_end 0024                      ?_get_led 0024  
                    ?_buf_pop 0024       __end_of_highPriorityISR 1834                   __smallconst 1000  
      __end_of_disable_timer0 1A9E        ??i2_disable_interrupts 0024                     _is_manual 0021  
            ___lwdiv@quotient 003A                     _init_vars 1564                  _message_name 000D  
         __end_of_init_serial 1A1A                  _message_type 001F          send_button_press@hex 002B  
          __end_of_adc_to_alt 18EE                      _LATAbits 0F89                      _LATBbits 0F8A  
                    _LATCbits 0F8B                      _LATDbits 0F8C                      _PIE1bits 0F9D  
                 _buf_isempty 1950                      i2u114_40 19A2                      i2u165_47 14C0  
                    _PIR1bits 0F9E                     _to_nibble 18EE           __end_of_receive_isr 1A42  
                   _timer_isr 1410                     _portb_isr 14BA                    ?_get_speed 0036  
                  _ADCON0bits 0FC2                     buf_push@v 0027               ?_disable_timer0 0024  
     send_button_press@button 002A                  ??_get_manual 0036                    ?_init_vars 0024  
               _enable_timer0 1A92                      __Hrparam 0000                      __Lrparam 0000  
          to_nibble@character 0036            __end_of_get_manual 19D2               ??_send_altitude 002A  
                  ?_to_nibble 0024                    ?_timer_isr 0024               ??_send_distance 002A  
        __end_of_transmit_isr 19B4                    ?_portb_isr 0024                  ??_init_timer 0036  
                ??_init_ports 0036    __end_of_disable_interrupts 1AA6                      _adc_task 1A88  
            ?_highPriorityISR 0024          __end_of_start_system 1AA2          send_distance@nibble0 002A  
        send_distance@nibble1 002B          send_distance@nibble2 002C          send_distance@nibble3 002D  
                 _init_serial 1A06               ___lwdiv@divisor 0038               ___lwdiv@counter 003C  
                    __ptext10 1A98                      __ptext11 19D2                      __ptext20 19F0  
                    __ptext12 179E                      __ptext21 1A88                      __ptext13 1AA2  
                    __ptext30 1250                      __ptext14 1564                      __ptext31 1AAA  
                    __ptext15 1A70                      __ptext32 1AAE                      __ptext24 1994  
                    __ptext16 1A06                      __ptext33 1A1A                      __ptext25 165A  
                    __ptext17 1872                      __ptext34 1AB2                      __ptext26 1950  
                    __ptext18 1A52                      __ptext35 18B0                      __ptext27 1410  
                    __ptext19 1AA6                      __ptext36 1A2E                      __ptext28 133A  
                    __ptext37 173C                      __ptext29 15E2                      __ptext38 14BA  
                    __ptext39 1972                      _buf_push 173C                ?_enable_timer0 0024  
                    _init_adc 19F0                   _message_pos 001E            __end_of_init_timer 1A7E  
          __end_of_init_ports 18B0                   _receive_isr 1A2E                      isa$xinst 0000  
                    int$flags 0045                   _parse_state 0020                      buf_pop@v 0029  
                 ??_get_speed 0038                    _INTCONbits 0FF2                   ??_init_vars 0036  
                    intlevel1 0000                      intlevel2 0000                    _RCSTA1bits 0FAB  
             adc_to_alt@value 0024                   ??_to_nibble 0036                   ??_timer_isr 0031  
                 ??_portb_isr 0024                  to_hex@nibble 0024                  _portb_enable 0005  
             ??_enable_timer0 0036                 ?_get_altitude 003D                  ?_buf_isempty 0024  
